ARM GAS  /tmp/ccG44j8D.s 			page 1


   1              		.cpu cortex-m7
   2              		.eabi_attribute 28, 1
   3              		.eabi_attribute 20, 1
   4              		.eabi_attribute 21, 1
   5              		.eabi_attribute 23, 3
   6              		.eabi_attribute 24, 1
   7              		.eabi_attribute 25, 1
   8              		.eabi_attribute 26, 1
   9              		.eabi_attribute 30, 1
  10              		.eabi_attribute 34, 1
  11              		.eabi_attribute 18, 4
  12              		.file	"LED.cpp"
  13              		.text
  14              	.Ltext0:
  15              		.cfi_sections	.debug_frame
  16              		.section	.text._ZN8STM32LED3LEDC2EP12GPIO_TypeDeft,"ax",%progbits
  17              		.align	1
  18              		.global	_ZN8STM32LED3LEDC2EP12GPIO_TypeDeft
  19              		.arch armv7e-m
  20              		.syntax unified
  21              		.thumb
  22              		.thumb_func
  23              		.fpu fpv5-d16
  25              	_ZN8STM32LED3LEDC2EP12GPIO_TypeDeft:
  26              		.fnstart
  27              	.LVL0:
  28              	.LFB1253:
  29              		.file 1 "Modules/src/LED.cpp"
   1:Modules/src/LED.cpp **** #include "LED.h"
   2:Modules/src/LED.cpp **** #include "stm32h7xx_hal.h"
   3:Modules/src/LED.cpp **** 
   4:Modules/src/LED.cpp **** namespace STM32LED
   5:Modules/src/LED.cpp **** {
   6:Modules/src/LED.cpp ****     LED* LED2;
   7:Modules/src/LED.cpp ****     LED* LED3;
   8:Modules/src/LED.cpp **** 
   9:Modules/src/LED.cpp ****     LED::LED(GPIO_TypeDef* gpio_port, uint16_t gpio_pin)
  30              		.loc 1 9 5 view -0
  31              		.cfi_startproc
  32              		@ args = 0, pretend = 0, frame = 0
  33              		@ frame_needed = 0, uses_anonymous_args = 0
  34              		@ link register save eliminated.
  35              	.LBB2:
  10:Modules/src/LED.cpp ****     {
  11:Modules/src/LED.cpp ****         this->gpio_port = gpio_port;
  36              		.loc 1 11 9 view .LVU1
  37              		.loc 1 11 25 is_stmt 0 view .LVU2
  38 0000 4160     		str	r1, [r0, #4]
  12:Modules/src/LED.cpp ****         this->gpio_pin = gpio_pin;
  39              		.loc 1 12 9 is_stmt 1 view .LVU3
  40              		.loc 1 12 24 is_stmt 0 view .LVU4
  41 0002 0281     		strh	r2, [r0, #8]	@ movhi
  13:Modules/src/LED.cpp ****         this->LED_state = state::off;   //default state is off
  42              		.loc 1 13 9 is_stmt 1 view .LVU5
  43              		.loc 1 13 25 is_stmt 0 view .LVU6
  44 0004 0122     		movs	r2, #1
  45              	.LVL1:
ARM GAS  /tmp/ccG44j8D.s 			page 2


  46              		.loc 1 13 25 view .LVU7
  47 0006 0260     		str	r2, [r0]
  48              	.LBE2:
  14:Modules/src/LED.cpp ****     }
  49              		.loc 1 14 5 view .LVU8
  50 0008 7047     		bx	lr
  51              		.cfi_endproc
  52              	.LFE1253:
  53              		.cantunwind
  54              		.fnend
  56              		.global	_ZN8STM32LED3LEDC1EP12GPIO_TypeDeft
  57              		.thumb_set _ZN8STM32LED3LEDC1EP12GPIO_TypeDeft,_ZN8STM32LED3LEDC2EP12GPIO_TypeDeft
  58              		.section	.text._ZN8STM32LED3LED3setENS_5stateE,"ax",%progbits
  59              		.align	1
  60              		.global	_ZN8STM32LED3LED3setENS_5stateE
  61              		.syntax unified
  62              		.thumb
  63              		.thumb_func
  64              		.fpu fpv5-d16
  66              	_ZN8STM32LED3LED3setENS_5stateE:
  67              		.fnstart
  68              	.LVL2:
  69              	.LFB1255:
  15:Modules/src/LED.cpp **** 
  16:Modules/src/LED.cpp ****     //checks current state - if 
  17:Modules/src/LED.cpp ****     void LED::set(state s)
  18:Modules/src/LED.cpp ****     {
  70              		.loc 1 18 5 is_stmt 1 view -0
  71              		.cfi_startproc
  72              		@ args = 0, pretend = 0, frame = 0
  73              		@ frame_needed = 0, uses_anonymous_args = 0
  74              		.loc 1 18 5 is_stmt 0 view .LVU10
  75 0000 08B5     		push	{r3, lr}
  76              		.save {r3, lr}
  77              	.LCFI0:
  78              		.cfi_def_cfa_offset 8
  79              		.cfi_offset 3, -8
  80              		.cfi_offset 14, -4
  19:Modules/src/LED.cpp ****         if (s == state::on)
  81              		.loc 1 19 9 is_stmt 1 view .LVU11
  82 0002 11B1     		cbz	r1, .L6
  20:Modules/src/LED.cpp ****         {
  21:Modules/src/LED.cpp ****             this->LED_state = state::on;
  22:Modules/src/LED.cpp ****             HAL_GPIO_WritePin(gpio_port, gpio_pin, GPIO_PIN_SET);    //turn on the LED
  23:Modules/src/LED.cpp ****         }
  24:Modules/src/LED.cpp ****         else if (s == state::off)
  83              		.loc 1 24 14 view .LVU12
  84 0004 0129     		cmp	r1, #1
  85 0006 08D0     		beq	.L7
  86              	.LVL3:
  87              	.L2:
  25:Modules/src/LED.cpp ****         {
  26:Modules/src/LED.cpp ****             this->LED_state = state::off;
  27:Modules/src/LED.cpp ****             HAL_GPIO_WritePin(gpio_port, gpio_pin, GPIO_PIN_RESET);  //turn off the LED
  28:Modules/src/LED.cpp ****         }
  29:Modules/src/LED.cpp ****         return;
  30:Modules/src/LED.cpp ****     }
ARM GAS  /tmp/ccG44j8D.s 			page 3


  88              		.loc 1 30 5 is_stmt 0 view .LVU13
  89 0008 08BD     		pop	{r3, pc}
  90              	.LVL4:
  91              	.L6:
  21:Modules/src/LED.cpp ****             HAL_GPIO_WritePin(gpio_port, gpio_pin, GPIO_PIN_SET);    //turn on the LED
  92              		.loc 1 21 13 is_stmt 1 view .LVU14
  21:Modules/src/LED.cpp ****             HAL_GPIO_WritePin(gpio_port, gpio_pin, GPIO_PIN_SET);    //turn on the LED
  93              		.loc 1 21 29 is_stmt 0 view .LVU15
  94 000a 0023     		movs	r3, #0
  95 000c 0360     		str	r3, [r0]
  22:Modules/src/LED.cpp ****         }
  96              		.loc 1 22 13 is_stmt 1 view .LVU16
  22:Modules/src/LED.cpp ****         }
  97              		.loc 1 22 30 is_stmt 0 view .LVU17
  98 000e 0122     		movs	r2, #1
  99 0010 0189     		ldrh	r1, [r0, #8]
 100              	.LVL5:
  22:Modules/src/LED.cpp ****         }
 101              		.loc 1 22 30 view .LVU18
 102 0012 4068     		ldr	r0, [r0, #4]
 103              	.LVL6:
  22:Modules/src/LED.cpp ****         }
 104              		.loc 1 22 30 view .LVU19
 105 0014 FFF7FEFF 		bl	HAL_GPIO_WritePin
 106              	.LVL7:
 107 0018 F6E7     		b	.L2
 108              	.LVL8:
 109              	.L7:
  26:Modules/src/LED.cpp ****             HAL_GPIO_WritePin(gpio_port, gpio_pin, GPIO_PIN_RESET);  //turn off the LED
 110              		.loc 1 26 13 is_stmt 1 view .LVU20
  26:Modules/src/LED.cpp ****             HAL_GPIO_WritePin(gpio_port, gpio_pin, GPIO_PIN_RESET);  //turn off the LED
 111              		.loc 1 26 29 is_stmt 0 view .LVU21
 112 001a 0160     		str	r1, [r0]
  27:Modules/src/LED.cpp ****         }
 113              		.loc 1 27 13 is_stmt 1 view .LVU22
  27:Modules/src/LED.cpp ****         }
 114              		.loc 1 27 30 is_stmt 0 view .LVU23
 115 001c 0022     		movs	r2, #0
 116 001e 0189     		ldrh	r1, [r0, #8]
 117              	.LVL9:
  27:Modules/src/LED.cpp ****         }
 118              		.loc 1 27 30 view .LVU24
 119 0020 4068     		ldr	r0, [r0, #4]
 120              	.LVL10:
  27:Modules/src/LED.cpp ****         }
 121              		.loc 1 27 30 view .LVU25
 122 0022 FFF7FEFF 		bl	HAL_GPIO_WritePin
 123              	.LVL11:
  29:Modules/src/LED.cpp ****     }
 124              		.loc 1 29 9 is_stmt 1 view .LVU26
 125 0026 EFE7     		b	.L2
 126              		.cfi_endproc
 127              	.LFE1255:
 128              		.fnend
 130              		.section	.text._ZN8STM32LED3LED6toggleEv,"ax",%progbits
 131              		.align	1
 132              		.global	_ZN8STM32LED3LED6toggleEv
ARM GAS  /tmp/ccG44j8D.s 			page 4


 133              		.syntax unified
 134              		.thumb
 135              		.thumb_func
 136              		.fpu fpv5-d16
 138              	_ZN8STM32LED3LED6toggleEv:
 139              		.fnstart
 140              	.LVL12:
 141              	.LFB1256:
  31:Modules/src/LED.cpp **** 
  32:Modules/src/LED.cpp ****     //toggles LED based on whether button was pressed or not
  33:Modules/src/LED.cpp ****     //Checks for button press - then sets appropriate state
  34:Modules/src/LED.cpp ****     void LED::toggle()  
  35:Modules/src/LED.cpp ****     {
 142              		.loc 1 35 5 view -0
 143              		.cfi_startproc
 144              		@ args = 0, pretend = 0, frame = 0
 145              		@ frame_needed = 0, uses_anonymous_args = 0
 146              		.loc 1 35 5 is_stmt 0 view .LVU28
 147 0000 08B5     		push	{r3, lr}
 148              		.save {r3, lr}
 149              	.LCFI1:
 150              		.cfi_def_cfa_offset 8
 151              		.cfi_offset 3, -8
 152              		.cfi_offset 14, -4
  36:Modules/src/LED.cpp ****         if (LED_state == state::on)
 153              		.loc 1 36 9 is_stmt 1 view .LVU29
 154              		.loc 1 36 13 is_stmt 0 view .LVU30
 155 0002 0368     		ldr	r3, [r0]
 156              		.loc 1 36 9 view .LVU31
 157 0004 1BB9     		cbnz	r3, .L9
  37:Modules/src/LED.cpp ****         {
  38:Modules/src/LED.cpp ****             set(state::off);
 158              		.loc 1 38 13 is_stmt 1 view .LVU32
 159              		.loc 1 38 16 is_stmt 0 view .LVU33
 160 0006 0121     		movs	r1, #1
 161 0008 FFF7FEFF 		bl	_ZN8STM32LED3LED3setENS_5stateE
 162              	.LVL13:
 163              	.L8:
  39:Modules/src/LED.cpp ****             //HAL_Delay(500);
  40:Modules/src/LED.cpp ****         }
  41:Modules/src/LED.cpp ****         else
  42:Modules/src/LED.cpp ****         {
  43:Modules/src/LED.cpp ****             set(state::on);
  44:Modules/src/LED.cpp ****             //HAL_Delay(500);
  45:Modules/src/LED.cpp ****         }
  46:Modules/src/LED.cpp ****        return;
  47:Modules/src/LED.cpp ****     }
 164              		.loc 1 47 5 view .LVU34
 165 000c 08BD     		pop	{r3, pc}
 166              	.LVL14:
 167              	.L9:
  43:Modules/src/LED.cpp ****             //HAL_Delay(500);
 168              		.loc 1 43 13 is_stmt 1 view .LVU35
  43:Modules/src/LED.cpp ****             //HAL_Delay(500);
 169              		.loc 1 43 16 is_stmt 0 view .LVU36
 170 000e 0021     		movs	r1, #0
 171 0010 FFF7FEFF 		bl	_ZN8STM32LED3LED3setENS_5stateE
ARM GAS  /tmp/ccG44j8D.s 			page 5


 172              	.LVL15:
  46:Modules/src/LED.cpp ****     }
 173              		.loc 1 46 8 is_stmt 1 view .LVU37
 174 0014 FAE7     		b	.L8
 175              		.cfi_endproc
 176              	.LFE1256:
 177              		.fnend
 179              		.global	_ZN8STM32LED4LED3E
 180              		.global	_ZN8STM32LED4LED2E
 181              		.section	.bss._ZN8STM32LED4LED2E,"aw",%nobits
 182              		.align	2
 185              	_ZN8STM32LED4LED2E:
 186 0000 00000000 		.space	4
 187              		.section	.bss._ZN8STM32LED4LED3E,"aw",%nobits
 188              		.align	2
 191              	_ZN8STM32LED4LED3E:
 192 0000 00000000 		.space	4
 193              		.text
 194              	.Letext0:
 195              		.file 2 "/usr/lib/gcc/arm-none-eabi/10.3.1/include/stdint.h"
 196              		.file 3 "Drivers/CMSIS/Device/ST/STM32H7xx/Include/stm32h733xx.h"
 197              		.file 4 "/usr/include/newlib/c++/10.3.1/cmath"
 198              		.file 5 "/usr/include/newlib/c++/10.3.1/type_traits"
 199              		.file 6 "/usr/include/newlib/c++/10.3.1/concepts"
 200              		.file 7 "/usr/include/newlib/c++/10.3.1/arm-none-eabi/thumb/v7e-m+dp/hard/bits/c++config.h"
 201              		.file 8 "/usr/include/newlib/c++/10.3.1/bits/iterator_concepts.h"
 202              		.file 9 "/usr/include/newlib/c++/10.3.1/compare"
 203              		.file 10 "/usr/include/newlib/c++/10.3.1/bits/exception_ptr.h"
 204              		.file 11 "/usr/include/newlib/c++/10.3.1/debug/debug.h"
 205              		.file 12 "/usr/include/newlib/c++/10.3.1/bits/std_abs.h"
 206              		.file 13 "/usr/include/newlib/c++/10.3.1/bits/predefined_ops.h"
 207              		.file 14 "/usr/include/newlib/math.h"
 208              		.file 15 "/usr/include/newlib/c++/10.3.1/bits/ptr_traits.h"
 209              		.file 16 "/usr/include/newlib/c++/10.3.1/math.h"
 210              		.file 17 "Drivers/STM32H7xx_HAL_Driver/Inc/stm32h7xx_hal_gpio.h"
 211              		.file 18 "Drivers/STM32H7xx_HAL_Driver/Inc/stm32h7xx_hal.h"
 212              		.file 19 "Modules/inc/LED.h"
 213              		.file 20 "<built-in>"
ARM GAS  /tmp/ccG44j8D.s 			page 6

