ARM GAS  /tmp/ccvbHP25.s 			page 1


   1              		.cpu cortex-m7
   2              		.eabi_attribute 28, 1
   3              		.eabi_attribute 20, 1
   4              		.eabi_attribute 21, 1
   5              		.eabi_attribute 23, 3
   6              		.eabi_attribute 24, 1
   7              		.eabi_attribute 25, 1
   8              		.eabi_attribute 26, 1
   9              		.eabi_attribute 30, 1
  10              		.eabi_attribute 34, 1
  11              		.eabi_attribute 18, 4
  12              		.file	"main.cpp"
  13              		.text
  14              	.Ltext0:
  15              		.cfi_sections	.debug_frame
  16              		.section	.text._ZL12MX_GPIO_Initv,"ax",%progbits
  17              		.align	1
  18              		.arch armv7e-m
  19              		.syntax unified
  20              		.thumb
  21              		.thumb_func
  22              		.fpu fpv5-d16
  24              	_ZL12MX_GPIO_Initv:
  25              		.fnstart
  26              	.LFB1259:
  27              		.file 1 "Core/Src/main.cpp"
   1:Core/Src/main.cpp **** /* USER CODE BEGIN Header */
   2:Core/Src/main.cpp **** /**
   3:Core/Src/main.cpp ****   ******************************************************************************
   4:Core/Src/main.cpp ****   * @file           : main.c
   5:Core/Src/main.cpp ****   * @brief          : Main program body
   6:Core/Src/main.cpp ****   ******************************************************************************
   7:Core/Src/main.cpp ****   * @attention
   8:Core/Src/main.cpp ****   *
   9:Core/Src/main.cpp ****   * Copyright (c) 2023 STMicroelectronics.
  10:Core/Src/main.cpp ****   * All rights reserved.
  11:Core/Src/main.cpp ****   *
  12:Core/Src/main.cpp ****   * This software is licensed under terms that can be found in the LICENSE file
  13:Core/Src/main.cpp ****   * in the root directory of this software component.
  14:Core/Src/main.cpp ****   * If no LICENSE file comes with this software, it is provided AS-IS.
  15:Core/Src/main.cpp ****   *
  16:Core/Src/main.cpp ****   ******************************************************************************
  17:Core/Src/main.cpp ****   */
  18:Core/Src/main.cpp **** /* USER CODE END Header */
  19:Core/Src/main.cpp **** /* Includes ------------------------------------------------------------------*/
  20:Core/Src/main.cpp **** #include "main.h"
  21:Core/Src/main.cpp **** #include "cmsis_os.h"
  22:Core/Src/main.cpp **** 
  23:Core/Src/main.cpp **** /* Private includes ----------------------------------------------------------*/
  24:Core/Src/main.cpp **** /* USER CODE BEGIN Includes */
  25:Core/Src/main.cpp **** #include "LED.h"
  26:Core/Src/main.cpp **** #include "motorControl.h"
  27:Core/Src/main.cpp **** /* USER CODE END Includes */
  28:Core/Src/main.cpp **** 
  29:Core/Src/main.cpp **** /* Private typedef -----------------------------------------------------------*/
  30:Core/Src/main.cpp **** /* USER CODE BEGIN PTD */
  31:Core/Src/main.cpp **** 
ARM GAS  /tmp/ccvbHP25.s 			page 2


  32:Core/Src/main.cpp **** /* USER CODE END PTD */
  33:Core/Src/main.cpp **** 
  34:Core/Src/main.cpp **** /* Private define ------------------------------------------------------------*/
  35:Core/Src/main.cpp **** /* USER CODE BEGIN PD */
  36:Core/Src/main.cpp **** 
  37:Core/Src/main.cpp **** /* USER CODE END PD */
  38:Core/Src/main.cpp **** 
  39:Core/Src/main.cpp **** /* Private macro -------------------------------------------------------------*/
  40:Core/Src/main.cpp **** /* USER CODE BEGIN PM */
  41:Core/Src/main.cpp **** 
  42:Core/Src/main.cpp **** /* USER CODE END PM */
  43:Core/Src/main.cpp **** 
  44:Core/Src/main.cpp **** /* Private variables ---------------------------------------------------------*/
  45:Core/Src/main.cpp **** 
  46:Core/Src/main.cpp **** TIM_HandleTypeDef htim2;
  47:Core/Src/main.cpp **** 
  48:Core/Src/main.cpp **** /* Definitions for defaultTask */
  49:Core/Src/main.cpp **** osThreadId_t defaultTaskHandle;
  50:Core/Src/main.cpp **** const osThreadAttr_t defaultTask_attributes = {
  51:Core/Src/main.cpp ****   .name = "defaultTask",
  52:Core/Src/main.cpp ****   .stack_size = 128 * 4,
  53:Core/Src/main.cpp ****   .priority = (osPriority_t) osPriorityNormal,
  54:Core/Src/main.cpp **** };
  55:Core/Src/main.cpp **** /* USER CODE BEGIN PV */
  56:Core/Src/main.cpp **** 
  57:Core/Src/main.cpp **** /* USER CODE END PV */
  58:Core/Src/main.cpp **** 
  59:Core/Src/main.cpp **** /* Private function prototypes -----------------------------------------------*/
  60:Core/Src/main.cpp **** void SystemClock_Config(void);
  61:Core/Src/main.cpp **** static void MX_GPIO_Init(void);
  62:Core/Src/main.cpp **** static void MX_TIM2_Init(void);
  63:Core/Src/main.cpp **** void StartDefaultTask(void *argument);
  64:Core/Src/main.cpp **** 
  65:Core/Src/main.cpp **** /* USER CODE BEGIN PFP */
  66:Core/Src/main.cpp **** 
  67:Core/Src/main.cpp **** /* USER CODE END PFP */
  68:Core/Src/main.cpp **** 
  69:Core/Src/main.cpp **** /* Private user code ---------------------------------------------------------*/
  70:Core/Src/main.cpp **** /* USER CODE BEGIN 0 */
  71:Core/Src/main.cpp **** 
  72:Core/Src/main.cpp **** /* USER CODE END 0 */
  73:Core/Src/main.cpp **** 
  74:Core/Src/main.cpp **** /**
  75:Core/Src/main.cpp ****   * @brief  The application entry point.
  76:Core/Src/main.cpp ****   * @retval int
  77:Core/Src/main.cpp ****   */
  78:Core/Src/main.cpp **** int main(void)
  79:Core/Src/main.cpp **** {
  80:Core/Src/main.cpp ****   /* USER CODE BEGIN 1 */
  81:Core/Src/main.cpp **** 
  82:Core/Src/main.cpp ****   /* LED objects */
  83:Core/Src/main.cpp ****   STM32LED::LED1= new STM32LED::LED(GPIOB, GPIO_PIN_0);
  84:Core/Src/main.cpp ****   STM32LED::LED2= new STM32LED::LED(GPIOE, GPIO_PIN_1);
  85:Core/Src/main.cpp ****   STM32LED::LED3= new STM32LED::LED(GPIOB, GPIO_PIN_14);
  86:Core/Src/main.cpp **** 
  87:Core/Src/main.cpp ****   /* motorControl object(s) */
  88:Core/Src/main.cpp ****   STM32_motor_control::motorc1 = new STM32_motor_control::motor_control(GPIOA , GPIO_PIN_0 , &htim2
ARM GAS  /tmp/ccvbHP25.s 			page 3


  89:Core/Src/main.cpp **** 
  90:Core/Src/main.cpp ****   /* USER CODE END 1 */
  91:Core/Src/main.cpp **** 
  92:Core/Src/main.cpp ****   /* MCU Configuration--------------------------------------------------------*/
  93:Core/Src/main.cpp **** 
  94:Core/Src/main.cpp ****   /* Reset of all peripherals, Initializes the Flash interface and the Systick. */
  95:Core/Src/main.cpp ****   HAL_Init();
  96:Core/Src/main.cpp **** 
  97:Core/Src/main.cpp ****   /* USER CODE BEGIN Init */
  98:Core/Src/main.cpp **** 
  99:Core/Src/main.cpp ****   /* USER CODE END Init */
 100:Core/Src/main.cpp **** 
 101:Core/Src/main.cpp ****   /* Configure the system clock */
 102:Core/Src/main.cpp ****   SystemClock_Config();
 103:Core/Src/main.cpp **** 
 104:Core/Src/main.cpp ****   /* USER CODE BEGIN SysInit */
 105:Core/Src/main.cpp **** 
 106:Core/Src/main.cpp ****   /* USER CODE END SysInit */
 107:Core/Src/main.cpp **** 
 108:Core/Src/main.cpp ****   /* Initialize all configured peripherals */
 109:Core/Src/main.cpp ****   MX_GPIO_Init();
 110:Core/Src/main.cpp ****   MX_TIM2_Init();
 111:Core/Src/main.cpp ****   /* USER CODE BEGIN 2 */
 112:Core/Src/main.cpp ****   HAL_TIM_OC_Start(&htim2, TIM_CHANNEL_1);
 113:Core/Src/main.cpp ****   /* USER CODE END 2 */
 114:Core/Src/main.cpp **** 
 115:Core/Src/main.cpp ****   /* Init scheduler */
 116:Core/Src/main.cpp ****   osKernelInitialize();
 117:Core/Src/main.cpp **** 
 118:Core/Src/main.cpp ****   /* USER CODE BEGIN RTOS_MUTEX */
 119:Core/Src/main.cpp ****   /* add mutexes, ... */
 120:Core/Src/main.cpp ****   /* USER CODE END RTOS_MUTEX */
 121:Core/Src/main.cpp **** 
 122:Core/Src/main.cpp ****   /* USER CODE BEGIN RTOS_SEMAPHORES */
 123:Core/Src/main.cpp ****   /* add semaphores, ... */
 124:Core/Src/main.cpp ****   /* USER CODE END RTOS_SEMAPHORES */
 125:Core/Src/main.cpp **** 
 126:Core/Src/main.cpp ****   /* USER CODE BEGIN RTOS_TIMERS */
 127:Core/Src/main.cpp ****   /* start timers, add new ones, ... */
 128:Core/Src/main.cpp ****   /* USER CODE END RTOS_TIMERS */
 129:Core/Src/main.cpp **** 
 130:Core/Src/main.cpp ****   /* USER CODE BEGIN RTOS_QUEUES */
 131:Core/Src/main.cpp ****   /* add queues, ... */
 132:Core/Src/main.cpp ****   /* USER CODE END RTOS_QUEUES */
 133:Core/Src/main.cpp **** 
 134:Core/Src/main.cpp ****   /* Create the thread(s) */
 135:Core/Src/main.cpp ****   /* creation of defaultTask */
 136:Core/Src/main.cpp ****   defaultTaskHandle = osThreadNew(StartDefaultTask, NULL, &defaultTask_attributes);
 137:Core/Src/main.cpp **** 
 138:Core/Src/main.cpp ****   /* USER CODE BEGIN RTOS_THREADS */
 139:Core/Src/main.cpp ****   /* add threads, ... */
 140:Core/Src/main.cpp ****   /* USER CODE END RTOS_THREADS */
 141:Core/Src/main.cpp **** 
 142:Core/Src/main.cpp ****   /* USER CODE BEGIN RTOS_EVENTS */
 143:Core/Src/main.cpp ****   /* add events, ... */
 144:Core/Src/main.cpp ****   STM32_motor_control::motorc1 -> calculate_timer_frequency(10);
 145:Core/Src/main.cpp ****   STM32_motor_control::motorc1 -> adjust_timer_frequency();
ARM GAS  /tmp/ccvbHP25.s 			page 4


 146:Core/Src/main.cpp **** 
 147:Core/Src/main.cpp ****   /* USER CODE END RTOS_EVENTS */
 148:Core/Src/main.cpp **** 
 149:Core/Src/main.cpp ****   /* Start scheduler */
 150:Core/Src/main.cpp ****   osKernelStart();
 151:Core/Src/main.cpp ****   /* We should never get here as control is now taken by the scheduler */
 152:Core/Src/main.cpp ****   /* Infinite loop */
 153:Core/Src/main.cpp ****   /* USER CODE BEGIN WHILE */
 154:Core/Src/main.cpp ****   while (1)
 155:Core/Src/main.cpp ****   {
 156:Core/Src/main.cpp ****     /* USER CODE END WHILE */
 157:Core/Src/main.cpp **** 
 158:Core/Src/main.cpp ****     /* USER CODE BEGIN 3 */
 159:Core/Src/main.cpp ****   }
 160:Core/Src/main.cpp ****   /* USER CODE END 3 */
 161:Core/Src/main.cpp **** }
 162:Core/Src/main.cpp **** 
 163:Core/Src/main.cpp **** /**
 164:Core/Src/main.cpp ****   * @brief System Clock Configuration
 165:Core/Src/main.cpp ****   * @retval None
 166:Core/Src/main.cpp ****   */
 167:Core/Src/main.cpp **** void SystemClock_Config(void)
 168:Core/Src/main.cpp **** {
 169:Core/Src/main.cpp ****   RCC_OscInitTypeDef RCC_OscInitStruct = {0};
 170:Core/Src/main.cpp ****   RCC_ClkInitTypeDef RCC_ClkInitStruct = {0};
 171:Core/Src/main.cpp **** 
 172:Core/Src/main.cpp ****   /** Supply configuration update enable
 173:Core/Src/main.cpp ****   */
 174:Core/Src/main.cpp ****   HAL_PWREx_ConfigSupply(PWR_LDO_SUPPLY);
 175:Core/Src/main.cpp **** 
 176:Core/Src/main.cpp ****   /** Configure the main internal regulator output voltage
 177:Core/Src/main.cpp ****   */
 178:Core/Src/main.cpp ****   __HAL_PWR_VOLTAGESCALING_CONFIG(PWR_REGULATOR_VOLTAGE_SCALE1);
 179:Core/Src/main.cpp **** 
 180:Core/Src/main.cpp ****   while(!__HAL_PWR_GET_FLAG(PWR_FLAG_VOSRDY)) {}
 181:Core/Src/main.cpp **** 
 182:Core/Src/main.cpp ****   /** Initializes the RCC Oscillators according to the specified parameters
 183:Core/Src/main.cpp ****   * in the RCC_OscInitTypeDef structure.
 184:Core/Src/main.cpp ****   */
 185:Core/Src/main.cpp ****   RCC_OscInitStruct.OscillatorType = RCC_OSCILLATORTYPE_HSI;
 186:Core/Src/main.cpp ****   RCC_OscInitStruct.HSIState = RCC_HSI_DIV1;
 187:Core/Src/main.cpp ****   RCC_OscInitStruct.HSICalibrationValue = 64;
 188:Core/Src/main.cpp ****   RCC_OscInitStruct.PLL.PLLState = RCC_PLL_ON;
 189:Core/Src/main.cpp ****   RCC_OscInitStruct.PLL.PLLSource = RCC_PLLSOURCE_HSI;
 190:Core/Src/main.cpp ****   RCC_OscInitStruct.PLL.PLLM = 32;
 191:Core/Src/main.cpp ****   RCC_OscInitStruct.PLL.PLLN = 200;
 192:Core/Src/main.cpp ****   RCC_OscInitStruct.PLL.PLLP = 1;
 193:Core/Src/main.cpp ****   RCC_OscInitStruct.PLL.PLLQ = 2;
 194:Core/Src/main.cpp ****   RCC_OscInitStruct.PLL.PLLR = 2;
 195:Core/Src/main.cpp ****   RCC_OscInitStruct.PLL.PLLRGE = RCC_PLL1VCIRANGE_1;
 196:Core/Src/main.cpp ****   RCC_OscInitStruct.PLL.PLLVCOSEL = RCC_PLL1VCOWIDE;
 197:Core/Src/main.cpp ****   RCC_OscInitStruct.PLL.PLLFRACN = 0;
 198:Core/Src/main.cpp ****   if (HAL_RCC_OscConfig(&RCC_OscInitStruct) != HAL_OK)
 199:Core/Src/main.cpp ****   {
 200:Core/Src/main.cpp ****     Error_Handler();
 201:Core/Src/main.cpp ****   }
 202:Core/Src/main.cpp **** 
ARM GAS  /tmp/ccvbHP25.s 			page 5


 203:Core/Src/main.cpp ****   /** Initializes the CPU, AHB and APB buses clocks
 204:Core/Src/main.cpp ****   */
 205:Core/Src/main.cpp ****   RCC_ClkInitStruct.ClockType = RCC_CLOCKTYPE_HCLK|RCC_CLOCKTYPE_SYSCLK
 206:Core/Src/main.cpp ****                               |RCC_CLOCKTYPE_PCLK1|RCC_CLOCKTYPE_PCLK2
 207:Core/Src/main.cpp ****                               |RCC_CLOCKTYPE_D3PCLK1|RCC_CLOCKTYPE_D1PCLK1;
 208:Core/Src/main.cpp ****   RCC_ClkInitStruct.SYSCLKSource = RCC_SYSCLKSOURCE_PLLCLK;
 209:Core/Src/main.cpp ****   RCC_ClkInitStruct.SYSCLKDivider = RCC_SYSCLK_DIV1;
 210:Core/Src/main.cpp ****   RCC_ClkInitStruct.AHBCLKDivider = RCC_HCLK_DIV2;
 211:Core/Src/main.cpp ****   RCC_ClkInitStruct.APB3CLKDivider = RCC_APB3_DIV2;
 212:Core/Src/main.cpp ****   RCC_ClkInitStruct.APB1CLKDivider = RCC_APB1_DIV2;
 213:Core/Src/main.cpp ****   RCC_ClkInitStruct.APB2CLKDivider = RCC_APB2_DIV2;
 214:Core/Src/main.cpp ****   RCC_ClkInitStruct.APB4CLKDivider = RCC_APB4_DIV2;
 215:Core/Src/main.cpp **** 
 216:Core/Src/main.cpp ****   if (HAL_RCC_ClockConfig(&RCC_ClkInitStruct, FLASH_LATENCY_2) != HAL_OK)
 217:Core/Src/main.cpp ****   {
 218:Core/Src/main.cpp ****     Error_Handler();
 219:Core/Src/main.cpp ****   }
 220:Core/Src/main.cpp **** }
 221:Core/Src/main.cpp **** 
 222:Core/Src/main.cpp **** /**
 223:Core/Src/main.cpp ****   * @brief TIM2 Initialization Function
 224:Core/Src/main.cpp ****   * @param None
 225:Core/Src/main.cpp ****   * @retval None
 226:Core/Src/main.cpp ****   */
 227:Core/Src/main.cpp **** static void MX_TIM2_Init(void)
 228:Core/Src/main.cpp **** {
 229:Core/Src/main.cpp **** 
 230:Core/Src/main.cpp ****   /* USER CODE BEGIN TIM2_Init 0 */
 231:Core/Src/main.cpp **** 
 232:Core/Src/main.cpp ****   /* USER CODE END TIM2_Init 0 */
 233:Core/Src/main.cpp **** 
 234:Core/Src/main.cpp ****   TIM_ClockConfigTypeDef sClockSourceConfig = {0};
 235:Core/Src/main.cpp ****   TIM_MasterConfigTypeDef sMasterConfig = {0};
 236:Core/Src/main.cpp ****   TIM_OC_InitTypeDef sConfigOC = {0};
 237:Core/Src/main.cpp **** 
 238:Core/Src/main.cpp ****   /* USER CODE BEGIN TIM2_Init 1 */
 239:Core/Src/main.cpp **** 
 240:Core/Src/main.cpp ****   /* USER CODE END TIM2_Init 1 */
 241:Core/Src/main.cpp ****   htim2.Instance = TIM2;
 242:Core/Src/main.cpp ****   htim2.Init.Prescaler = 100;
 243:Core/Src/main.cpp ****   htim2.Init.CounterMode = TIM_COUNTERMODE_UP;
 244:Core/Src/main.cpp ****   htim2.Init.Period = 1000;
 245:Core/Src/main.cpp ****   htim2.Init.ClockDivision = TIM_CLOCKDIVISION_DIV1;
 246:Core/Src/main.cpp ****   htim2.Init.AutoReloadPreload = TIM_AUTORELOAD_PRELOAD_ENABLE;
 247:Core/Src/main.cpp ****   if (HAL_TIM_Base_Init(&htim2) != HAL_OK)
 248:Core/Src/main.cpp ****   {
 249:Core/Src/main.cpp ****     Error_Handler();
 250:Core/Src/main.cpp ****   }
 251:Core/Src/main.cpp ****   sClockSourceConfig.ClockSource = TIM_CLOCKSOURCE_INTERNAL;
 252:Core/Src/main.cpp ****   if (HAL_TIM_ConfigClockSource(&htim2, &sClockSourceConfig) != HAL_OK)
 253:Core/Src/main.cpp ****   {
 254:Core/Src/main.cpp ****     Error_Handler();
 255:Core/Src/main.cpp ****   }
 256:Core/Src/main.cpp ****   if (HAL_TIM_OC_Init(&htim2) != HAL_OK)
 257:Core/Src/main.cpp ****   {
 258:Core/Src/main.cpp ****     Error_Handler();
 259:Core/Src/main.cpp ****   }
ARM GAS  /tmp/ccvbHP25.s 			page 6


 260:Core/Src/main.cpp ****   sMasterConfig.MasterOutputTrigger = TIM_TRGO_RESET;
 261:Core/Src/main.cpp ****   sMasterConfig.MasterSlaveMode = TIM_MASTERSLAVEMODE_DISABLE;
 262:Core/Src/main.cpp ****   if (HAL_TIMEx_MasterConfigSynchronization(&htim2, &sMasterConfig) != HAL_OK)
 263:Core/Src/main.cpp ****   {
 264:Core/Src/main.cpp ****     Error_Handler();
 265:Core/Src/main.cpp ****   }
 266:Core/Src/main.cpp ****   sConfigOC.OCMode = TIM_OCMODE_TOGGLE;
 267:Core/Src/main.cpp ****   sConfigOC.Pulse = 0;
 268:Core/Src/main.cpp ****   sConfigOC.OCPolarity = TIM_OCPOLARITY_HIGH;
 269:Core/Src/main.cpp ****   sConfigOC.OCFastMode = TIM_OCFAST_DISABLE;
 270:Core/Src/main.cpp ****   if (HAL_TIM_OC_ConfigChannel(&htim2, &sConfigOC, TIM_CHANNEL_1) != HAL_OK)
 271:Core/Src/main.cpp ****   {
 272:Core/Src/main.cpp ****     Error_Handler();
 273:Core/Src/main.cpp ****   }
 274:Core/Src/main.cpp ****   /* USER CODE BEGIN TIM2_Init 2 */
 275:Core/Src/main.cpp **** 
 276:Core/Src/main.cpp ****   /* USER CODE END TIM2_Init 2 */
 277:Core/Src/main.cpp ****   HAL_TIM_MspPostInit(&htim2);
 278:Core/Src/main.cpp **** 
 279:Core/Src/main.cpp **** }
 280:Core/Src/main.cpp **** 
 281:Core/Src/main.cpp **** /**
 282:Core/Src/main.cpp ****   * @brief GPIO Initialization Function
 283:Core/Src/main.cpp ****   * @param None
 284:Core/Src/main.cpp ****   * @retval None
 285:Core/Src/main.cpp ****   */
 286:Core/Src/main.cpp **** static void MX_GPIO_Init(void)
 287:Core/Src/main.cpp **** {
  28              		.loc 1 287 1 view -0
  29              		.cfi_startproc
  30              		@ args = 0, pretend = 0, frame = 40
  31              		@ frame_needed = 0, uses_anonymous_args = 0
  32 0000 F0B5     		push	{r4, r5, r6, r7, lr}
  33              		.save {r4, r5, r6, r7, lr}
  34              	.LCFI0:
  35              		.cfi_def_cfa_offset 20
  36              		.cfi_offset 4, -20
  37              		.cfi_offset 5, -16
  38              		.cfi_offset 6, -12
  39              		.cfi_offset 7, -8
  40              		.cfi_offset 14, -4
  41              		.pad #44
  42 0002 8BB0     		sub	sp, sp, #44
  43              	.LCFI1:
  44              		.cfi_def_cfa_offset 64
 288:Core/Src/main.cpp ****   GPIO_InitTypeDef GPIO_InitStruct = {0};
  45              		.loc 1 288 3 view .LVU1
  46              		.loc 1 288 20 is_stmt 0 view .LVU2
  47 0004 0024     		movs	r4, #0
  48 0006 0594     		str	r4, [sp, #20]
  49 0008 0694     		str	r4, [sp, #24]
  50 000a 0794     		str	r4, [sp, #28]
  51 000c 0894     		str	r4, [sp, #32]
  52 000e 0994     		str	r4, [sp, #36]
 289:Core/Src/main.cpp **** /* USER CODE BEGIN MX_GPIO_Init_1 */
 290:Core/Src/main.cpp **** /* USER CODE END MX_GPIO_Init_1 */
 291:Core/Src/main.cpp **** 
ARM GAS  /tmp/ccvbHP25.s 			page 7


 292:Core/Src/main.cpp ****   /* GPIO Ports Clock Enable */
 293:Core/Src/main.cpp ****   __HAL_RCC_GPIOC_CLK_ENABLE();
  53              		.loc 1 293 3 is_stmt 1 view .LVU3
  54              	.LBB4:
  55              		.loc 1 293 3 view .LVU4
  56              		.loc 1 293 3 view .LVU5
  57 0010 2F4B     		ldr	r3, .L3
  58 0012 D3F8E020 		ldr	r2, [r3, #224]
  59 0016 42F00402 		orr	r2, r2, #4
  60 001a C3F8E020 		str	r2, [r3, #224]
  61              		.loc 1 293 3 view .LVU6
  62 001e D3F8E020 		ldr	r2, [r3, #224]
  63 0022 02F00402 		and	r2, r2, #4
  64 0026 0092     		str	r2, [sp]
  65              		.loc 1 293 3 view .LVU7
  66 0028 009A     		ldr	r2, [sp]
  67              	.LBE4:
 294:Core/Src/main.cpp ****   __HAL_RCC_GPIOH_CLK_ENABLE();
  68              		.loc 1 294 3 view .LVU8
  69              	.LBB5:
  70              		.loc 1 294 3 view .LVU9
  71              		.loc 1 294 3 view .LVU10
  72 002a D3F8E020 		ldr	r2, [r3, #224]
  73 002e 42F08002 		orr	r2, r2, #128
  74 0032 C3F8E020 		str	r2, [r3, #224]
  75              		.loc 1 294 3 view .LVU11
  76 0036 D3F8E020 		ldr	r2, [r3, #224]
  77 003a 02F08002 		and	r2, r2, #128
  78 003e 0192     		str	r2, [sp, #4]
  79              		.loc 1 294 3 view .LVU12
  80 0040 019A     		ldr	r2, [sp, #4]
  81              	.LBE5:
 295:Core/Src/main.cpp ****   __HAL_RCC_GPIOA_CLK_ENABLE();
  82              		.loc 1 295 3 view .LVU13
  83              	.LBB6:
  84              		.loc 1 295 3 view .LVU14
  85              		.loc 1 295 3 view .LVU15
  86 0042 D3F8E020 		ldr	r2, [r3, #224]
  87 0046 42F00102 		orr	r2, r2, #1
  88 004a C3F8E020 		str	r2, [r3, #224]
  89              		.loc 1 295 3 view .LVU16
  90 004e D3F8E020 		ldr	r2, [r3, #224]
  91 0052 02F00102 		and	r2, r2, #1
  92 0056 0292     		str	r2, [sp, #8]
  93              		.loc 1 295 3 view .LVU17
  94 0058 029A     		ldr	r2, [sp, #8]
  95              	.LBE6:
 296:Core/Src/main.cpp ****   __HAL_RCC_GPIOB_CLK_ENABLE();
  96              		.loc 1 296 3 view .LVU18
  97              	.LBB7:
  98              		.loc 1 296 3 view .LVU19
  99              		.loc 1 296 3 view .LVU20
 100 005a D3F8E020 		ldr	r2, [r3, #224]
 101 005e 42F00202 		orr	r2, r2, #2
 102 0062 C3F8E020 		str	r2, [r3, #224]
 103              		.loc 1 296 3 view .LVU21
 104 0066 D3F8E020 		ldr	r2, [r3, #224]
ARM GAS  /tmp/ccvbHP25.s 			page 8


 105 006a 02F00202 		and	r2, r2, #2
 106 006e 0392     		str	r2, [sp, #12]
 107              		.loc 1 296 3 view .LVU22
 108 0070 039A     		ldr	r2, [sp, #12]
 109              	.LBE7:
 297:Core/Src/main.cpp ****   __HAL_RCC_GPIOE_CLK_ENABLE();
 110              		.loc 1 297 3 view .LVU23
 111              	.LBB8:
 112              		.loc 1 297 3 view .LVU24
 113              		.loc 1 297 3 view .LVU25
 114 0072 D3F8E020 		ldr	r2, [r3, #224]
 115 0076 42F01002 		orr	r2, r2, #16
 116 007a C3F8E020 		str	r2, [r3, #224]
 117              		.loc 1 297 3 view .LVU26
 118 007e D3F8E030 		ldr	r3, [r3, #224]
 119 0082 03F01003 		and	r3, r3, #16
 120 0086 0493     		str	r3, [sp, #16]
 121              		.loc 1 297 3 view .LVU27
 122 0088 049B     		ldr	r3, [sp, #16]
 123              	.LBE8:
 298:Core/Src/main.cpp **** 
 299:Core/Src/main.cpp ****   /*Configure GPIO pin Output Level */
 300:Core/Src/main.cpp ****   HAL_GPIO_WritePin(GPIOB, LED1_Pin|LED3_Pin, GPIO_PIN_RESET);
 124              		.loc 1 300 3 view .LVU28
 125              		.loc 1 300 20 is_stmt 0 view .LVU29
 126 008a 124F     		ldr	r7, .L3+4
 127 008c 2246     		mov	r2, r4
 128 008e 44F20101 		movw	r1, #16385
 129 0092 3846     		mov	r0, r7
 130 0094 FFF7FEFF 		bl	HAL_GPIO_WritePin
 131              	.LVL0:
 301:Core/Src/main.cpp **** 
 302:Core/Src/main.cpp ****   /*Configure GPIO pin Output Level */
 303:Core/Src/main.cpp ****   HAL_GPIO_WritePin(LED2_GPIO_Port, LED2_Pin, GPIO_PIN_RESET);
 132              		.loc 1 303 3 is_stmt 1 view .LVU30
 133              		.loc 1 303 20 is_stmt 0 view .LVU31
 134 0098 0F4D     		ldr	r5, .L3+8
 135 009a 2246     		mov	r2, r4
 136 009c 0221     		movs	r1, #2
 137 009e 2846     		mov	r0, r5
 138 00a0 FFF7FEFF 		bl	HAL_GPIO_WritePin
 139              	.LVL1:
 304:Core/Src/main.cpp **** 
 305:Core/Src/main.cpp ****   /*Configure GPIO pins : LED1_Pin LED3_Pin */
 306:Core/Src/main.cpp ****   GPIO_InitStruct.Pin = LED1_Pin|LED3_Pin;
 140              		.loc 1 306 3 is_stmt 1 view .LVU32
 141              		.loc 1 306 23 is_stmt 0 view .LVU33
 142 00a4 44F20103 		movw	r3, #16385
 143 00a8 0593     		str	r3, [sp, #20]
 307:Core/Src/main.cpp ****   GPIO_InitStruct.Mode = GPIO_MODE_OUTPUT_PP;
 144              		.loc 1 307 3 is_stmt 1 view .LVU34
 145              		.loc 1 307 24 is_stmt 0 view .LVU35
 146 00aa 0126     		movs	r6, #1
 147 00ac 0696     		str	r6, [sp, #24]
 308:Core/Src/main.cpp ****   GPIO_InitStruct.Pull = GPIO_NOPULL;
 148              		.loc 1 308 3 is_stmt 1 view .LVU36
 149              		.loc 1 308 24 is_stmt 0 view .LVU37
ARM GAS  /tmp/ccvbHP25.s 			page 9


 150 00ae 0794     		str	r4, [sp, #28]
 309:Core/Src/main.cpp ****   GPIO_InitStruct.Speed = GPIO_SPEED_FREQ_LOW;
 151              		.loc 1 309 3 is_stmt 1 view .LVU38
 152              		.loc 1 309 25 is_stmt 0 view .LVU39
 153 00b0 0894     		str	r4, [sp, #32]
 310:Core/Src/main.cpp ****   HAL_GPIO_Init(GPIOB, &GPIO_InitStruct);
 154              		.loc 1 310 3 is_stmt 1 view .LVU40
 155              		.loc 1 310 16 is_stmt 0 view .LVU41
 156 00b2 05A9     		add	r1, sp, #20
 157 00b4 3846     		mov	r0, r7
 158 00b6 FFF7FEFF 		bl	HAL_GPIO_Init
 159              	.LVL2:
 311:Core/Src/main.cpp **** 
 312:Core/Src/main.cpp ****   /*Configure GPIO pin : LED2_Pin */
 313:Core/Src/main.cpp ****   GPIO_InitStruct.Pin = LED2_Pin;
 160              		.loc 1 313 3 is_stmt 1 view .LVU42
 161              		.loc 1 313 23 is_stmt 0 view .LVU43
 162 00ba 0223     		movs	r3, #2
 163 00bc 0593     		str	r3, [sp, #20]
 314:Core/Src/main.cpp ****   GPIO_InitStruct.Mode = GPIO_MODE_OUTPUT_PP;
 164              		.loc 1 314 3 is_stmt 1 view .LVU44
 165              		.loc 1 314 24 is_stmt 0 view .LVU45
 166 00be 0696     		str	r6, [sp, #24]
 315:Core/Src/main.cpp ****   GPIO_InitStruct.Pull = GPIO_NOPULL;
 167              		.loc 1 315 3 is_stmt 1 view .LVU46
 168              		.loc 1 315 24 is_stmt 0 view .LVU47
 169 00c0 0794     		str	r4, [sp, #28]
 316:Core/Src/main.cpp ****   GPIO_InitStruct.Speed = GPIO_SPEED_FREQ_LOW;
 170              		.loc 1 316 3 is_stmt 1 view .LVU48
 171              		.loc 1 316 25 is_stmt 0 view .LVU49
 172 00c2 0894     		str	r4, [sp, #32]
 317:Core/Src/main.cpp ****   HAL_GPIO_Init(LED2_GPIO_Port, &GPIO_InitStruct);
 173              		.loc 1 317 3 is_stmt 1 view .LVU50
 174              		.loc 1 317 16 is_stmt 0 view .LVU51
 175 00c4 05A9     		add	r1, sp, #20
 176 00c6 2846     		mov	r0, r5
 177 00c8 FFF7FEFF 		bl	HAL_GPIO_Init
 178              	.LVL3:
 318:Core/Src/main.cpp **** 
 319:Core/Src/main.cpp **** /* USER CODE BEGIN MX_GPIO_Init_2 */
 320:Core/Src/main.cpp **** /* USER CODE END MX_GPIO_Init_2 */
 321:Core/Src/main.cpp **** }
 179              		.loc 1 321 1 view .LVU52
 180 00cc 0BB0     		add	sp, sp, #44
 181              	.LCFI2:
 182              		.cfi_def_cfa_offset 20
 183              		@ sp needed
 184 00ce F0BD     		pop	{r4, r5, r6, r7, pc}
 185              	.L4:
 186              		.align	2
 187              	.L3:
 188 00d0 00440258 		.word	1476543488
 189 00d4 00040258 		.word	1476527104
 190 00d8 00100258 		.word	1476530176
 191              		.cfi_endproc
 192              	.LFE1259:
 193              		.fnend
ARM GAS  /tmp/ccvbHP25.s 			page 10


 195              		.section	.text._Z16StartDefaultTaskPv,"ax",%progbits
 196              		.align	1
 197              		.global	_Z16StartDefaultTaskPv
 198              		.syntax unified
 199              		.thumb
 200              		.thumb_func
 201              		.fpu fpv5-d16
 203              	_Z16StartDefaultTaskPv:
 204              		.fnstart
 205              	.LFB1260:
 322:Core/Src/main.cpp **** 
 323:Core/Src/main.cpp **** /* USER CODE BEGIN 4 */
 324:Core/Src/main.cpp **** 
 325:Core/Src/main.cpp **** /* USER CODE END 4 */
 326:Core/Src/main.cpp **** 
 327:Core/Src/main.cpp **** /* USER CODE BEGIN Header_StartDefaultTask */
 328:Core/Src/main.cpp **** /**
 329:Core/Src/main.cpp ****   * @brief  Function implementing the defaultTask thread.
 330:Core/Src/main.cpp ****   * @param  argument: Not used
 331:Core/Src/main.cpp ****   * @retval None
 332:Core/Src/main.cpp ****   */
 333:Core/Src/main.cpp **** /* USER CODE END Header_StartDefaultTask */
 334:Core/Src/main.cpp **** void StartDefaultTask(void *argument)
 335:Core/Src/main.cpp **** {
 206              		.loc 1 335 1 is_stmt 1 view -0
 207              		.cfi_startproc
 208              		@ args = 0, pretend = 0, frame = 0
 209              		@ frame_needed = 0, uses_anonymous_args = 0
 210              	.LVL4:
 211              		.loc 1 335 1 is_stmt 0 view .LVU54
 212 0000 10B5     		push	{r4, lr}
 213              		.save {r4, lr}
 214              	.LCFI3:
 215              		.cfi_def_cfa_offset 8
 216              		.cfi_offset 4, -8
 217              		.cfi_offset 14, -4
 218              	.LVL5:
 219              	.L6:
 336:Core/Src/main.cpp ****   /* USER CODE BEGIN 5 */
 337:Core/Src/main.cpp ****   /* Infinite loop */
 338:Core/Src/main.cpp ****   for(;;)
 220              		.loc 1 338 3 is_stmt 1 discriminator 1 view .LVU55
 339:Core/Src/main.cpp ****   {
 340:Core/Src/main.cpp ****     STM32LED:: LED1 -> toggle();
 221              		.loc 1 340 5 discriminator 1 view .LVU56
 222              		.loc 1 340 30 is_stmt 0 discriminator 1 view .LVU57
 223 0002 194B     		ldr	r3, .L8
 224 0004 1868     		ldr	r0, [r3]
 225 0006 FFF7FEFF 		bl	_ZN8STM32LED3LED6toggleEv
 226              	.LVL6:
 341:Core/Src/main.cpp ****     // osDelay(5);
 342:Core/Src/main.cpp ****     // __HAL_TIM_SET_AUTORELOAD(&htim2, 1);
 343:Core/Src/main.cpp ****     // STM32LED:: LED2 -> toggle();
 344:Core/Src/main.cpp ****     // osDelay(5);
 345:Core/Src/main.cpp ****     // STM32LED:: LED3 -> toggle();
 346:Core/Src/main.cpp ****     // __HAL_TIM_SET_AUTORELOAD(&htim2, 1000);
 347:Core/Src/main.cpp ****     osDelay(3500);
ARM GAS  /tmp/ccvbHP25.s 			page 11


 227              		.loc 1 347 5 is_stmt 1 discriminator 1 view .LVU58
 228              		.loc 1 347 12 is_stmt 0 discriminator 1 view .LVU59
 229 000a 40F6AC50 		movw	r0, #3500
 230 000e FFF7FEFF 		bl	osDelay
 231              	.LVL7:
 348:Core/Src/main.cpp ****     STM32_motor_control::motorc1 -> calculate_timer_frequency(100);
 232              		.loc 1 348 5 is_stmt 1 discriminator 1 view .LVU60
 233              		.loc 1 348 62 is_stmt 0 discriminator 1 view .LVU61
 234 0012 164C     		ldr	r4, .L8+4
 235 0014 6421     		movs	r1, #100
 236 0016 2068     		ldr	r0, [r4]
 237 0018 FFF7FEFF 		bl	_ZN19STM32_motor_control13motor_control25calculate_timer_frequencyEt
 238              	.LVL8:
 349:Core/Src/main.cpp ****     STM32_motor_control::motorc1 -> adjust_timer_frequency();
 239              		.loc 1 349 5 is_stmt 1 discriminator 1 view .LVU62
 240              		.loc 1 349 59 is_stmt 0 discriminator 1 view .LVU63
 241 001c 2068     		ldr	r0, [r4]
 242 001e FFF7FEFF 		bl	_ZN19STM32_motor_control13motor_control22adjust_timer_frequencyEv
 243              	.LVL9:
 350:Core/Src/main.cpp ****     osDelay(3500);
 244              		.loc 1 350 5 is_stmt 1 discriminator 1 view .LVU64
 245              		.loc 1 350 12 is_stmt 0 discriminator 1 view .LVU65
 246 0022 40F6AC50 		movw	r0, #3500
 247 0026 FFF7FEFF 		bl	osDelay
 248              	.LVL10:
 351:Core/Src/main.cpp ****     STM32_motor_control::motorc1 -> calculate_timer_frequency(300);
 249              		.loc 1 351 5 is_stmt 1 discriminator 1 view .LVU66
 250              		.loc 1 351 62 is_stmt 0 discriminator 1 view .LVU67
 251 002a 4FF49671 		mov	r1, #300
 252 002e 2068     		ldr	r0, [r4]
 253 0030 FFF7FEFF 		bl	_ZN19STM32_motor_control13motor_control25calculate_timer_frequencyEt
 254              	.LVL11:
 352:Core/Src/main.cpp ****     STM32_motor_control::motorc1 -> adjust_timer_frequency();
 255              		.loc 1 352 5 is_stmt 1 discriminator 1 view .LVU68
 256              		.loc 1 352 59 is_stmt 0 discriminator 1 view .LVU69
 257 0034 2068     		ldr	r0, [r4]
 258 0036 FFF7FEFF 		bl	_ZN19STM32_motor_control13motor_control22adjust_timer_frequencyEv
 259              	.LVL12:
 353:Core/Src/main.cpp ****     osDelay(3500);
 260              		.loc 1 353 5 is_stmt 1 discriminator 1 view .LVU70
 261              		.loc 1 353 12 is_stmt 0 discriminator 1 view .LVU71
 262 003a 40F6AC50 		movw	r0, #3500
 263 003e FFF7FEFF 		bl	osDelay
 264              	.LVL13:
 354:Core/Src/main.cpp ****     STM32_motor_control::motorc1 -> calculate_timer_frequency(100);
 265              		.loc 1 354 5 is_stmt 1 discriminator 1 view .LVU72
 266              		.loc 1 354 62 is_stmt 0 discriminator 1 view .LVU73
 267 0042 6421     		movs	r1, #100
 268 0044 2068     		ldr	r0, [r4]
 269 0046 FFF7FEFF 		bl	_ZN19STM32_motor_control13motor_control25calculate_timer_frequencyEt
 270              	.LVL14:
 355:Core/Src/main.cpp ****     STM32_motor_control::motorc1 -> adjust_timer_frequency();
 271              		.loc 1 355 5 is_stmt 1 discriminator 1 view .LVU74
 272              		.loc 1 355 59 is_stmt 0 discriminator 1 view .LVU75
 273 004a 2068     		ldr	r0, [r4]
 274 004c FFF7FEFF 		bl	_ZN19STM32_motor_control13motor_control22adjust_timer_frequencyEv
 275              	.LVL15:
ARM GAS  /tmp/ccvbHP25.s 			page 12


 356:Core/Src/main.cpp ****     osDelay(3500);
 276              		.loc 1 356 5 is_stmt 1 discriminator 1 view .LVU76
 277              		.loc 1 356 12 is_stmt 0 discriminator 1 view .LVU77
 278 0050 40F6AC50 		movw	r0, #3500
 279 0054 FFF7FEFF 		bl	osDelay
 280              	.LVL16:
 357:Core/Src/main.cpp ****     STM32_motor_control::motorc1 -> calculate_timer_frequency(10);
 281              		.loc 1 357 5 is_stmt 1 discriminator 1 view .LVU78
 282              		.loc 1 357 62 is_stmt 0 discriminator 1 view .LVU79
 283 0058 0A21     		movs	r1, #10
 284 005a 2068     		ldr	r0, [r4]
 285 005c FFF7FEFF 		bl	_ZN19STM32_motor_control13motor_control25calculate_timer_frequencyEt
 286              	.LVL17:
 358:Core/Src/main.cpp ****     STM32_motor_control::motorc1 -> adjust_timer_frequency();
 287              		.loc 1 358 5 is_stmt 1 discriminator 1 view .LVU80
 288              		.loc 1 358 59 is_stmt 0 discriminator 1 view .LVU81
 289 0060 2068     		ldr	r0, [r4]
 290 0062 FFF7FEFF 		bl	_ZN19STM32_motor_control13motor_control22adjust_timer_frequencyEv
 291              	.LVL18:
 338:Core/Src/main.cpp ****   {
 292              		.loc 1 338 3 is_stmt 1 discriminator 1 view .LVU82
 293 0066 CCE7     		b	.L6
 294              	.L9:
 295              		.align	2
 296              	.L8:
 297 0068 00000000 		.word	_ZN8STM32LED4LED1E
 298 006c 00000000 		.word	_ZN19STM32_motor_control7motorc1E
 299              		.cfi_endproc
 300              	.LFE1260:
 301              		.fnend
 303              		.section	.text.HAL_TIM_PeriodElapsedCallback,"ax",%progbits
 304              		.align	1
 305              		.global	HAL_TIM_PeriodElapsedCallback
 306              		.syntax unified
 307              		.thumb
 308              		.thumb_func
 309              		.fpu fpv5-d16
 311              	HAL_TIM_PeriodElapsedCallback:
 312              		.fnstart
 313              	.LVL19:
 314              	.LFB1261:
 359:Core/Src/main.cpp ****   }
 360:Core/Src/main.cpp ****   /* USER CODE END 5 */
 361:Core/Src/main.cpp **** }
 362:Core/Src/main.cpp **** 
 363:Core/Src/main.cpp **** /**
 364:Core/Src/main.cpp ****   * @brief  Period elapsed callback in non blocking mode
 365:Core/Src/main.cpp ****   * @note   This function is called  when TIM1 interrupt took place, inside
 366:Core/Src/main.cpp ****   * HAL_TIM_IRQHandler(). It makes a direct call to HAL_IncTick() to increment
 367:Core/Src/main.cpp ****   * a global variable "uwTick" used as application time base.
 368:Core/Src/main.cpp ****   * @param  htim : TIM handle
 369:Core/Src/main.cpp ****   * @retval None
 370:Core/Src/main.cpp ****   */
 371:Core/Src/main.cpp **** void HAL_TIM_PeriodElapsedCallback(TIM_HandleTypeDef *htim)
 372:Core/Src/main.cpp **** {
 315              		.loc 1 372 1 view -0
 316              		.cfi_startproc
ARM GAS  /tmp/ccvbHP25.s 			page 13


 317              		@ args = 0, pretend = 0, frame = 0
 318              		@ frame_needed = 0, uses_anonymous_args = 0
 319              		.loc 1 372 1 is_stmt 0 view .LVU84
 320 0000 08B5     		push	{r3, lr}
 321              		.save {r3, lr}
 322              	.LCFI4:
 323              		.cfi_def_cfa_offset 8
 324              		.cfi_offset 3, -8
 325              		.cfi_offset 14, -4
 373:Core/Src/main.cpp ****   /* USER CODE BEGIN Callback 0 */
 374:Core/Src/main.cpp **** 
 375:Core/Src/main.cpp ****   /* USER CODE END Callback 0 */
 376:Core/Src/main.cpp ****   if (htim->Instance == TIM1) {
 326              		.loc 1 376 3 is_stmt 1 view .LVU85
 327              		.loc 1 376 13 is_stmt 0 view .LVU86
 328 0002 0268     		ldr	r2, [r0]
 329              		.loc 1 376 3 view .LVU87
 330 0004 034B     		ldr	r3, .L14
 331 0006 9A42     		cmp	r2, r3
 332 0008 00D0     		beq	.L13
 333              	.LVL20:
 334              	.L10:
 377:Core/Src/main.cpp ****     HAL_IncTick();
 378:Core/Src/main.cpp ****   }
 379:Core/Src/main.cpp ****   /* USER CODE BEGIN Callback 1 */
 380:Core/Src/main.cpp **** 
 381:Core/Src/main.cpp ****   /* USER CODE END Callback 1 */
 382:Core/Src/main.cpp **** }
 335              		.loc 1 382 1 view .LVU88
 336 000a 08BD     		pop	{r3, pc}
 337              	.LVL21:
 338              	.L13:
 377:Core/Src/main.cpp ****     HAL_IncTick();
 339              		.loc 1 377 5 is_stmt 1 view .LVU89
 377:Core/Src/main.cpp ****     HAL_IncTick();
 340              		.loc 1 377 16 is_stmt 0 view .LVU90
 341 000c FFF7FEFF 		bl	HAL_IncTick
 342              	.LVL22:
 343              		.loc 1 382 1 view .LVU91
 344 0010 FBE7     		b	.L10
 345              	.L15:
 346 0012 00BF     		.align	2
 347              	.L14:
 348 0014 00000140 		.word	1073807360
 349              		.cfi_endproc
 350              	.LFE1261:
 351              		.fnend
 353              		.section	.text.Error_Handler,"ax",%progbits
 354              		.align	1
 355              		.global	Error_Handler
 356              		.syntax unified
 357              		.thumb
 358              		.thumb_func
 359              		.fpu fpv5-d16
 361              	Error_Handler:
 362              		.fnstart
 363              	.LFB1262:
ARM GAS  /tmp/ccvbHP25.s 			page 14


 383:Core/Src/main.cpp **** 
 384:Core/Src/main.cpp **** /**
 385:Core/Src/main.cpp ****   * @brief  This function is executed in case of error occurrence.
 386:Core/Src/main.cpp ****   * @retval None
 387:Core/Src/main.cpp ****   */
 388:Core/Src/main.cpp **** void Error_Handler(void)
 389:Core/Src/main.cpp **** {
 364              		.loc 1 389 1 is_stmt 1 view -0
 365              		.cfi_startproc
 366              		@ Volatile: function does not return.
 367              		@ args = 0, pretend = 0, frame = 0
 368              		@ frame_needed = 0, uses_anonymous_args = 0
 369              		@ link register save eliminated.
 390:Core/Src/main.cpp ****   /* USER CODE BEGIN Error_Handler_Debug */
 391:Core/Src/main.cpp ****   /* User can add his own implementation to report the HAL error return state */
 392:Core/Src/main.cpp ****   __disable_irq();
 370              		.loc 1 392 3 view .LVU93
 371              	.LBB9:
 372              	.LBI9:
 373              		.file 2 "Drivers/CMSIS/Include/cmsis_gcc.h"
   1:Drivers/CMSIS/Include/cmsis_gcc.h **** /**************************************************************************//**
   2:Drivers/CMSIS/Include/cmsis_gcc.h ****  * @file     cmsis_gcc.h
   3:Drivers/CMSIS/Include/cmsis_gcc.h ****  * @brief    CMSIS compiler GCC header file
   4:Drivers/CMSIS/Include/cmsis_gcc.h ****  * @version  V5.2.0
   5:Drivers/CMSIS/Include/cmsis_gcc.h ****  * @date     08. May 2019
   6:Drivers/CMSIS/Include/cmsis_gcc.h ****  ******************************************************************************/
   7:Drivers/CMSIS/Include/cmsis_gcc.h **** /*
   8:Drivers/CMSIS/Include/cmsis_gcc.h ****  * Copyright (c) 2009-2019 Arm Limited. All rights reserved.
   9:Drivers/CMSIS/Include/cmsis_gcc.h ****  *
  10:Drivers/CMSIS/Include/cmsis_gcc.h ****  * SPDX-License-Identifier: Apache-2.0
  11:Drivers/CMSIS/Include/cmsis_gcc.h ****  *
  12:Drivers/CMSIS/Include/cmsis_gcc.h ****  * Licensed under the Apache License, Version 2.0 (the License); you may
  13:Drivers/CMSIS/Include/cmsis_gcc.h ****  * not use this file except in compliance with the License.
  14:Drivers/CMSIS/Include/cmsis_gcc.h ****  * You may obtain a copy of the License at
  15:Drivers/CMSIS/Include/cmsis_gcc.h ****  *
  16:Drivers/CMSIS/Include/cmsis_gcc.h ****  * www.apache.org/licenses/LICENSE-2.0
  17:Drivers/CMSIS/Include/cmsis_gcc.h ****  *
  18:Drivers/CMSIS/Include/cmsis_gcc.h ****  * Unless required by applicable law or agreed to in writing, software
  19:Drivers/CMSIS/Include/cmsis_gcc.h ****  * distributed under the License is distributed on an AS IS BASIS, WITHOUT
  20:Drivers/CMSIS/Include/cmsis_gcc.h ****  * WARRANTIES OR CONDITIONS OF ANY KIND, either express or implied.
  21:Drivers/CMSIS/Include/cmsis_gcc.h ****  * See the License for the specific language governing permissions and
  22:Drivers/CMSIS/Include/cmsis_gcc.h ****  * limitations under the License.
  23:Drivers/CMSIS/Include/cmsis_gcc.h ****  */
  24:Drivers/CMSIS/Include/cmsis_gcc.h **** 
  25:Drivers/CMSIS/Include/cmsis_gcc.h **** #ifndef __CMSIS_GCC_H
  26:Drivers/CMSIS/Include/cmsis_gcc.h **** #define __CMSIS_GCC_H
  27:Drivers/CMSIS/Include/cmsis_gcc.h **** 
  28:Drivers/CMSIS/Include/cmsis_gcc.h **** /* ignore some GCC warnings */
  29:Drivers/CMSIS/Include/cmsis_gcc.h **** #pragma GCC diagnostic push
  30:Drivers/CMSIS/Include/cmsis_gcc.h **** #pragma GCC diagnostic ignored "-Wsign-conversion"
  31:Drivers/CMSIS/Include/cmsis_gcc.h **** #pragma GCC diagnostic ignored "-Wconversion"
  32:Drivers/CMSIS/Include/cmsis_gcc.h **** #pragma GCC diagnostic ignored "-Wunused-parameter"
  33:Drivers/CMSIS/Include/cmsis_gcc.h **** 
  34:Drivers/CMSIS/Include/cmsis_gcc.h **** /* Fallback for __has_builtin */
  35:Drivers/CMSIS/Include/cmsis_gcc.h **** #ifndef __has_builtin
  36:Drivers/CMSIS/Include/cmsis_gcc.h ****   #define __has_builtin(x) (0)
  37:Drivers/CMSIS/Include/cmsis_gcc.h **** #endif
ARM GAS  /tmp/ccvbHP25.s 			page 15


  38:Drivers/CMSIS/Include/cmsis_gcc.h **** 
  39:Drivers/CMSIS/Include/cmsis_gcc.h **** /* CMSIS compiler specific defines */
  40:Drivers/CMSIS/Include/cmsis_gcc.h **** #ifndef   __ASM
  41:Drivers/CMSIS/Include/cmsis_gcc.h ****   #define __ASM                                  __asm
  42:Drivers/CMSIS/Include/cmsis_gcc.h **** #endif
  43:Drivers/CMSIS/Include/cmsis_gcc.h **** #ifndef   __INLINE
  44:Drivers/CMSIS/Include/cmsis_gcc.h ****   #define __INLINE                               inline
  45:Drivers/CMSIS/Include/cmsis_gcc.h **** #endif
  46:Drivers/CMSIS/Include/cmsis_gcc.h **** #ifndef   __STATIC_INLINE
  47:Drivers/CMSIS/Include/cmsis_gcc.h ****   #define __STATIC_INLINE                        static inline
  48:Drivers/CMSIS/Include/cmsis_gcc.h **** #endif
  49:Drivers/CMSIS/Include/cmsis_gcc.h **** #ifndef   __STATIC_FORCEINLINE                 
  50:Drivers/CMSIS/Include/cmsis_gcc.h ****   #define __STATIC_FORCEINLINE                   __attribute__((always_inline)) static inline
  51:Drivers/CMSIS/Include/cmsis_gcc.h **** #endif                                           
  52:Drivers/CMSIS/Include/cmsis_gcc.h **** #ifndef   __NO_RETURN
  53:Drivers/CMSIS/Include/cmsis_gcc.h ****   #define __NO_RETURN                            __attribute__((__noreturn__))
  54:Drivers/CMSIS/Include/cmsis_gcc.h **** #endif
  55:Drivers/CMSIS/Include/cmsis_gcc.h **** #ifndef   __USED
  56:Drivers/CMSIS/Include/cmsis_gcc.h ****   #define __USED                                 __attribute__((used))
  57:Drivers/CMSIS/Include/cmsis_gcc.h **** #endif
  58:Drivers/CMSIS/Include/cmsis_gcc.h **** #ifndef   __WEAK
  59:Drivers/CMSIS/Include/cmsis_gcc.h ****   #define __WEAK                                 __attribute__((weak))
  60:Drivers/CMSIS/Include/cmsis_gcc.h **** #endif
  61:Drivers/CMSIS/Include/cmsis_gcc.h **** #ifndef   __PACKED
  62:Drivers/CMSIS/Include/cmsis_gcc.h ****   #define __PACKED                               __attribute__((packed, aligned(1)))
  63:Drivers/CMSIS/Include/cmsis_gcc.h **** #endif
  64:Drivers/CMSIS/Include/cmsis_gcc.h **** #ifndef   __PACKED_STRUCT
  65:Drivers/CMSIS/Include/cmsis_gcc.h ****   #define __PACKED_STRUCT                        struct __attribute__((packed, aligned(1)))
  66:Drivers/CMSIS/Include/cmsis_gcc.h **** #endif
  67:Drivers/CMSIS/Include/cmsis_gcc.h **** #ifndef   __PACKED_UNION
  68:Drivers/CMSIS/Include/cmsis_gcc.h ****   #define __PACKED_UNION                         union __attribute__((packed, aligned(1)))
  69:Drivers/CMSIS/Include/cmsis_gcc.h **** #endif
  70:Drivers/CMSIS/Include/cmsis_gcc.h **** #ifndef   __UNALIGNED_UINT32        /* deprecated */
  71:Drivers/CMSIS/Include/cmsis_gcc.h ****   #pragma GCC diagnostic push
  72:Drivers/CMSIS/Include/cmsis_gcc.h ****   #pragma GCC diagnostic ignored "-Wpacked"
  73:Drivers/CMSIS/Include/cmsis_gcc.h ****   #pragma GCC diagnostic ignored "-Wattributes"
  74:Drivers/CMSIS/Include/cmsis_gcc.h ****   struct __attribute__((packed)) T_UINT32 { uint32_t v; };
  75:Drivers/CMSIS/Include/cmsis_gcc.h ****   #pragma GCC diagnostic pop
  76:Drivers/CMSIS/Include/cmsis_gcc.h ****   #define __UNALIGNED_UINT32(x)                  (((struct T_UINT32 *)(x))->v)
  77:Drivers/CMSIS/Include/cmsis_gcc.h **** #endif
  78:Drivers/CMSIS/Include/cmsis_gcc.h **** #ifndef   __UNALIGNED_UINT16_WRITE
  79:Drivers/CMSIS/Include/cmsis_gcc.h ****   #pragma GCC diagnostic push
  80:Drivers/CMSIS/Include/cmsis_gcc.h ****   #pragma GCC diagnostic ignored "-Wpacked"
  81:Drivers/CMSIS/Include/cmsis_gcc.h ****   #pragma GCC diagnostic ignored "-Wattributes"
  82:Drivers/CMSIS/Include/cmsis_gcc.h ****   __PACKED_STRUCT T_UINT16_WRITE { uint16_t v; };
  83:Drivers/CMSIS/Include/cmsis_gcc.h ****   #pragma GCC diagnostic pop
  84:Drivers/CMSIS/Include/cmsis_gcc.h ****   #define __UNALIGNED_UINT16_WRITE(addr, val)    (void)((((struct T_UINT16_WRITE *)(void *)(addr))-
  85:Drivers/CMSIS/Include/cmsis_gcc.h **** #endif
  86:Drivers/CMSIS/Include/cmsis_gcc.h **** #ifndef   __UNALIGNED_UINT16_READ
  87:Drivers/CMSIS/Include/cmsis_gcc.h ****   #pragma GCC diagnostic push
  88:Drivers/CMSIS/Include/cmsis_gcc.h ****   #pragma GCC diagnostic ignored "-Wpacked"
  89:Drivers/CMSIS/Include/cmsis_gcc.h ****   #pragma GCC diagnostic ignored "-Wattributes"
  90:Drivers/CMSIS/Include/cmsis_gcc.h ****   __PACKED_STRUCT T_UINT16_READ { uint16_t v; };
  91:Drivers/CMSIS/Include/cmsis_gcc.h ****   #pragma GCC diagnostic pop
  92:Drivers/CMSIS/Include/cmsis_gcc.h ****   #define __UNALIGNED_UINT16_READ(addr)          (((const struct T_UINT16_READ *)(const void *)(add
  93:Drivers/CMSIS/Include/cmsis_gcc.h **** #endif
  94:Drivers/CMSIS/Include/cmsis_gcc.h **** #ifndef   __UNALIGNED_UINT32_WRITE
ARM GAS  /tmp/ccvbHP25.s 			page 16


  95:Drivers/CMSIS/Include/cmsis_gcc.h ****   #pragma GCC diagnostic push
  96:Drivers/CMSIS/Include/cmsis_gcc.h ****   #pragma GCC diagnostic ignored "-Wpacked"
  97:Drivers/CMSIS/Include/cmsis_gcc.h ****   #pragma GCC diagnostic ignored "-Wattributes"
  98:Drivers/CMSIS/Include/cmsis_gcc.h ****   __PACKED_STRUCT T_UINT32_WRITE { uint32_t v; };
  99:Drivers/CMSIS/Include/cmsis_gcc.h ****   #pragma GCC diagnostic pop
 100:Drivers/CMSIS/Include/cmsis_gcc.h ****   #define __UNALIGNED_UINT32_WRITE(addr, val)    (void)((((struct T_UINT32_WRITE *)(void *)(addr))-
 101:Drivers/CMSIS/Include/cmsis_gcc.h **** #endif
 102:Drivers/CMSIS/Include/cmsis_gcc.h **** #ifndef   __UNALIGNED_UINT32_READ
 103:Drivers/CMSIS/Include/cmsis_gcc.h ****   #pragma GCC diagnostic push
 104:Drivers/CMSIS/Include/cmsis_gcc.h ****   #pragma GCC diagnostic ignored "-Wpacked"
 105:Drivers/CMSIS/Include/cmsis_gcc.h ****   #pragma GCC diagnostic ignored "-Wattributes"
 106:Drivers/CMSIS/Include/cmsis_gcc.h ****   __PACKED_STRUCT T_UINT32_READ { uint32_t v; };
 107:Drivers/CMSIS/Include/cmsis_gcc.h ****   #pragma GCC diagnostic pop
 108:Drivers/CMSIS/Include/cmsis_gcc.h ****   #define __UNALIGNED_UINT32_READ(addr)          (((const struct T_UINT32_READ *)(const void *)(add
 109:Drivers/CMSIS/Include/cmsis_gcc.h **** #endif
 110:Drivers/CMSIS/Include/cmsis_gcc.h **** #ifndef   __ALIGNED
 111:Drivers/CMSIS/Include/cmsis_gcc.h ****   #define __ALIGNED(x)                           __attribute__((aligned(x)))
 112:Drivers/CMSIS/Include/cmsis_gcc.h **** #endif
 113:Drivers/CMSIS/Include/cmsis_gcc.h **** #ifndef   __RESTRICT
 114:Drivers/CMSIS/Include/cmsis_gcc.h ****   #define __RESTRICT                             __restrict
 115:Drivers/CMSIS/Include/cmsis_gcc.h **** #endif
 116:Drivers/CMSIS/Include/cmsis_gcc.h **** #ifndef   __COMPILER_BARRIER
 117:Drivers/CMSIS/Include/cmsis_gcc.h ****   #define __COMPILER_BARRIER()                   __ASM volatile("":::"memory")
 118:Drivers/CMSIS/Include/cmsis_gcc.h **** #endif
 119:Drivers/CMSIS/Include/cmsis_gcc.h **** 
 120:Drivers/CMSIS/Include/cmsis_gcc.h **** /* #########################  Startup and Lowlevel Init  ######################## */
 121:Drivers/CMSIS/Include/cmsis_gcc.h **** 
 122:Drivers/CMSIS/Include/cmsis_gcc.h **** #ifndef __PROGRAM_START
 123:Drivers/CMSIS/Include/cmsis_gcc.h **** 
 124:Drivers/CMSIS/Include/cmsis_gcc.h **** /**
 125:Drivers/CMSIS/Include/cmsis_gcc.h ****   \brief   Initializes data and bss sections
 126:Drivers/CMSIS/Include/cmsis_gcc.h ****   \details This default implementations initialized all data and additional bss
 127:Drivers/CMSIS/Include/cmsis_gcc.h ****            sections relying on .copy.table and .zero.table specified properly
 128:Drivers/CMSIS/Include/cmsis_gcc.h ****            in the used linker script.
 129:Drivers/CMSIS/Include/cmsis_gcc.h ****   
 130:Drivers/CMSIS/Include/cmsis_gcc.h ****  */
 131:Drivers/CMSIS/Include/cmsis_gcc.h **** __STATIC_FORCEINLINE __NO_RETURN void __cmsis_start(void)
 132:Drivers/CMSIS/Include/cmsis_gcc.h **** {
 133:Drivers/CMSIS/Include/cmsis_gcc.h ****   extern void _start(void) __NO_RETURN;
 134:Drivers/CMSIS/Include/cmsis_gcc.h ****   
 135:Drivers/CMSIS/Include/cmsis_gcc.h ****   typedef struct {
 136:Drivers/CMSIS/Include/cmsis_gcc.h ****     uint32_t const* src;
 137:Drivers/CMSIS/Include/cmsis_gcc.h ****     uint32_t* dest;
 138:Drivers/CMSIS/Include/cmsis_gcc.h ****     uint32_t  wlen;
 139:Drivers/CMSIS/Include/cmsis_gcc.h ****   } __copy_table_t;
 140:Drivers/CMSIS/Include/cmsis_gcc.h ****   
 141:Drivers/CMSIS/Include/cmsis_gcc.h ****   typedef struct {
 142:Drivers/CMSIS/Include/cmsis_gcc.h ****     uint32_t* dest;
 143:Drivers/CMSIS/Include/cmsis_gcc.h ****     uint32_t  wlen;
 144:Drivers/CMSIS/Include/cmsis_gcc.h ****   } __zero_table_t;
 145:Drivers/CMSIS/Include/cmsis_gcc.h ****   
 146:Drivers/CMSIS/Include/cmsis_gcc.h ****   extern const __copy_table_t __copy_table_start__;
 147:Drivers/CMSIS/Include/cmsis_gcc.h ****   extern const __copy_table_t __copy_table_end__;
 148:Drivers/CMSIS/Include/cmsis_gcc.h ****   extern const __zero_table_t __zero_table_start__;
 149:Drivers/CMSIS/Include/cmsis_gcc.h ****   extern const __zero_table_t __zero_table_end__;
 150:Drivers/CMSIS/Include/cmsis_gcc.h **** 
 151:Drivers/CMSIS/Include/cmsis_gcc.h ****   for (__copy_table_t const* pTable = &__copy_table_start__; pTable < &__copy_table_end__; ++pTable
ARM GAS  /tmp/ccvbHP25.s 			page 17


 152:Drivers/CMSIS/Include/cmsis_gcc.h ****     for(uint32_t i=0u; i<pTable->wlen; ++i) {
 153:Drivers/CMSIS/Include/cmsis_gcc.h ****       pTable->dest[i] = pTable->src[i];
 154:Drivers/CMSIS/Include/cmsis_gcc.h ****     }
 155:Drivers/CMSIS/Include/cmsis_gcc.h ****   }
 156:Drivers/CMSIS/Include/cmsis_gcc.h ****  
 157:Drivers/CMSIS/Include/cmsis_gcc.h ****   for (__zero_table_t const* pTable = &__zero_table_start__; pTable < &__zero_table_end__; ++pTable
 158:Drivers/CMSIS/Include/cmsis_gcc.h ****     for(uint32_t i=0u; i<pTable->wlen; ++i) {
 159:Drivers/CMSIS/Include/cmsis_gcc.h ****       pTable->dest[i] = 0u;
 160:Drivers/CMSIS/Include/cmsis_gcc.h ****     }
 161:Drivers/CMSIS/Include/cmsis_gcc.h ****   }
 162:Drivers/CMSIS/Include/cmsis_gcc.h ****  
 163:Drivers/CMSIS/Include/cmsis_gcc.h ****   _start();
 164:Drivers/CMSIS/Include/cmsis_gcc.h **** }
 165:Drivers/CMSIS/Include/cmsis_gcc.h ****   
 166:Drivers/CMSIS/Include/cmsis_gcc.h **** #define __PROGRAM_START           __cmsis_start
 167:Drivers/CMSIS/Include/cmsis_gcc.h **** #endif
 168:Drivers/CMSIS/Include/cmsis_gcc.h **** 
 169:Drivers/CMSIS/Include/cmsis_gcc.h **** #ifndef __INITIAL_SP
 170:Drivers/CMSIS/Include/cmsis_gcc.h **** #define __INITIAL_SP              __StackTop
 171:Drivers/CMSIS/Include/cmsis_gcc.h **** #endif
 172:Drivers/CMSIS/Include/cmsis_gcc.h **** 
 173:Drivers/CMSIS/Include/cmsis_gcc.h **** #ifndef __STACK_LIMIT
 174:Drivers/CMSIS/Include/cmsis_gcc.h **** #define __STACK_LIMIT             __StackLimit
 175:Drivers/CMSIS/Include/cmsis_gcc.h **** #endif
 176:Drivers/CMSIS/Include/cmsis_gcc.h **** 
 177:Drivers/CMSIS/Include/cmsis_gcc.h **** #ifndef __VECTOR_TABLE
 178:Drivers/CMSIS/Include/cmsis_gcc.h **** #define __VECTOR_TABLE            __Vectors
 179:Drivers/CMSIS/Include/cmsis_gcc.h **** #endif
 180:Drivers/CMSIS/Include/cmsis_gcc.h **** 
 181:Drivers/CMSIS/Include/cmsis_gcc.h **** #ifndef __VECTOR_TABLE_ATTRIBUTE
 182:Drivers/CMSIS/Include/cmsis_gcc.h **** #define __VECTOR_TABLE_ATTRIBUTE  __attribute((used, section(".vectors")))
 183:Drivers/CMSIS/Include/cmsis_gcc.h **** #endif
 184:Drivers/CMSIS/Include/cmsis_gcc.h **** 
 185:Drivers/CMSIS/Include/cmsis_gcc.h **** /* ###########################  Core Function Access  ########################### */
 186:Drivers/CMSIS/Include/cmsis_gcc.h **** /** \ingroup  CMSIS_Core_FunctionInterface
 187:Drivers/CMSIS/Include/cmsis_gcc.h ****     \defgroup CMSIS_Core_RegAccFunctions CMSIS Core Register Access Functions
 188:Drivers/CMSIS/Include/cmsis_gcc.h ****   @{
 189:Drivers/CMSIS/Include/cmsis_gcc.h ****  */
 190:Drivers/CMSIS/Include/cmsis_gcc.h **** 
 191:Drivers/CMSIS/Include/cmsis_gcc.h **** /**
 192:Drivers/CMSIS/Include/cmsis_gcc.h ****   \brief   Enable IRQ Interrupts
 193:Drivers/CMSIS/Include/cmsis_gcc.h ****   \details Enables IRQ interrupts by clearing the I-bit in the CPSR.
 194:Drivers/CMSIS/Include/cmsis_gcc.h ****            Can only be executed in Privileged modes.
 195:Drivers/CMSIS/Include/cmsis_gcc.h ****  */
 196:Drivers/CMSIS/Include/cmsis_gcc.h **** __STATIC_FORCEINLINE void __enable_irq(void)
 197:Drivers/CMSIS/Include/cmsis_gcc.h **** {
 198:Drivers/CMSIS/Include/cmsis_gcc.h ****   __ASM volatile ("cpsie i" : : : "memory");
 199:Drivers/CMSIS/Include/cmsis_gcc.h **** }
 200:Drivers/CMSIS/Include/cmsis_gcc.h **** 
 201:Drivers/CMSIS/Include/cmsis_gcc.h **** 
 202:Drivers/CMSIS/Include/cmsis_gcc.h **** /**
 203:Drivers/CMSIS/Include/cmsis_gcc.h ****   \brief   Disable IRQ Interrupts
 204:Drivers/CMSIS/Include/cmsis_gcc.h ****   \details Disables IRQ interrupts by setting the I-bit in the CPSR.
 205:Drivers/CMSIS/Include/cmsis_gcc.h ****            Can only be executed in Privileged modes.
 206:Drivers/CMSIS/Include/cmsis_gcc.h ****  */
 207:Drivers/CMSIS/Include/cmsis_gcc.h **** __STATIC_FORCEINLINE void __disable_irq(void)
 374              		.loc 2 207 27 view .LVU94
ARM GAS  /tmp/ccvbHP25.s 			page 18


 375              	.LBB10:
 208:Drivers/CMSIS/Include/cmsis_gcc.h **** {
 209:Drivers/CMSIS/Include/cmsis_gcc.h ****   __ASM volatile ("cpsid i" : : : "memory");
 376              		.loc 2 209 3 view .LVU95
 377              		.syntax unified
 378              	@ 209 "Drivers/CMSIS/Include/cmsis_gcc.h" 1
 379 0000 72B6     		cpsid i
 380              	@ 0 "" 2
 381              		.thumb
 382              		.syntax unified
 383              	.L17:
 384              	.LBE10:
 385              	.LBE9:
 393:Core/Src/main.cpp ****   while (1)
 386              		.loc 1 393 3 discriminator 1 view .LVU96
 387              		.loc 1 393 3 discriminator 1 view .LVU97
 388 0002 FEE7     		b	.L17
 389              		.cfi_endproc
 390              	.LFE1262:
 391              		.cantunwind
 392              		.fnend
 394              		.section	.text._ZL12MX_TIM2_Initv,"ax",%progbits
 395              		.align	1
 396              		.syntax unified
 397              		.thumb
 398              		.thumb_func
 399              		.fpu fpv5-d16
 401              	_ZL12MX_TIM2_Initv:
 402              		.fnstart
 403              	.LFB1258:
 228:Core/Src/main.cpp **** 
 404              		.loc 1 228 1 view -0
 405              		.cfi_startproc
 406              		@ args = 0, pretend = 0, frame = 56
 407              		@ frame_needed = 0, uses_anonymous_args = 0
 408 0000 00B5     		push	{lr}
 409              		.save {lr}
 410              	.LCFI5:
 411              		.cfi_def_cfa_offset 4
 412              		.cfi_offset 14, -4
 413              		.pad #60
 414 0002 8FB0     		sub	sp, sp, #60
 415              	.LCFI6:
 416              		.cfi_def_cfa_offset 64
 234:Core/Src/main.cpp ****   TIM_MasterConfigTypeDef sMasterConfig = {0};
 417              		.loc 1 234 3 view .LVU99
 234:Core/Src/main.cpp ****   TIM_MasterConfigTypeDef sMasterConfig = {0};
 418              		.loc 1 234 26 is_stmt 0 view .LVU100
 419 0004 0023     		movs	r3, #0
 420 0006 0A93     		str	r3, [sp, #40]
 421 0008 0B93     		str	r3, [sp, #44]
 422 000a 0C93     		str	r3, [sp, #48]
 423 000c 0D93     		str	r3, [sp, #52]
 235:Core/Src/main.cpp ****   TIM_OC_InitTypeDef sConfigOC = {0};
 424              		.loc 1 235 3 is_stmt 1 view .LVU101
 235:Core/Src/main.cpp ****   TIM_OC_InitTypeDef sConfigOC = {0};
 425              		.loc 1 235 27 is_stmt 0 view .LVU102
ARM GAS  /tmp/ccvbHP25.s 			page 19


 426 000e 0793     		str	r3, [sp, #28]
 427 0010 0893     		str	r3, [sp, #32]
 428 0012 0993     		str	r3, [sp, #36]
 236:Core/Src/main.cpp **** 
 429              		.loc 1 236 3 is_stmt 1 view .LVU103
 236:Core/Src/main.cpp **** 
 430              		.loc 1 236 22 is_stmt 0 view .LVU104
 431 0014 0093     		str	r3, [sp]
 432 0016 0193     		str	r3, [sp, #4]
 433 0018 0293     		str	r3, [sp, #8]
 434 001a 0393     		str	r3, [sp, #12]
 435 001c 0493     		str	r3, [sp, #16]
 436 001e 0593     		str	r3, [sp, #20]
 437 0020 0693     		str	r3, [sp, #24]
 241:Core/Src/main.cpp ****   htim2.Init.Prescaler = 100;
 438              		.loc 1 241 3 is_stmt 1 view .LVU105
 241:Core/Src/main.cpp ****   htim2.Init.Prescaler = 100;
 439              		.loc 1 241 18 is_stmt 0 view .LVU106
 440 0022 1F48     		ldr	r0, .L30
 441 0024 4FF08042 		mov	r2, #1073741824
 442 0028 0260     		str	r2, [r0]
 242:Core/Src/main.cpp ****   htim2.Init.CounterMode = TIM_COUNTERMODE_UP;
 443              		.loc 1 242 3 is_stmt 1 view .LVU107
 242:Core/Src/main.cpp ****   htim2.Init.CounterMode = TIM_COUNTERMODE_UP;
 444              		.loc 1 242 24 is_stmt 0 view .LVU108
 445 002a 6422     		movs	r2, #100
 446 002c 4260     		str	r2, [r0, #4]
 243:Core/Src/main.cpp ****   htim2.Init.Period = 1000;
 447              		.loc 1 243 3 is_stmt 1 view .LVU109
 243:Core/Src/main.cpp ****   htim2.Init.Period = 1000;
 448              		.loc 1 243 26 is_stmt 0 view .LVU110
 449 002e 8360     		str	r3, [r0, #8]
 244:Core/Src/main.cpp ****   htim2.Init.ClockDivision = TIM_CLOCKDIVISION_DIV1;
 450              		.loc 1 244 3 is_stmt 1 view .LVU111
 244:Core/Src/main.cpp ****   htim2.Init.ClockDivision = TIM_CLOCKDIVISION_DIV1;
 451              		.loc 1 244 21 is_stmt 0 view .LVU112
 452 0030 4FF47A72 		mov	r2, #1000
 453 0034 C260     		str	r2, [r0, #12]
 245:Core/Src/main.cpp ****   htim2.Init.AutoReloadPreload = TIM_AUTORELOAD_PRELOAD_ENABLE;
 454              		.loc 1 245 3 is_stmt 1 view .LVU113
 245:Core/Src/main.cpp ****   htim2.Init.AutoReloadPreload = TIM_AUTORELOAD_PRELOAD_ENABLE;
 455              		.loc 1 245 28 is_stmt 0 view .LVU114
 456 0036 0361     		str	r3, [r0, #16]
 246:Core/Src/main.cpp ****   if (HAL_TIM_Base_Init(&htim2) != HAL_OK)
 457              		.loc 1 246 3 is_stmt 1 view .LVU115
 246:Core/Src/main.cpp ****   if (HAL_TIM_Base_Init(&htim2) != HAL_OK)
 458              		.loc 1 246 32 is_stmt 0 view .LVU116
 459 0038 8023     		movs	r3, #128
 460 003a 8361     		str	r3, [r0, #24]
 247:Core/Src/main.cpp ****   {
 461              		.loc 1 247 3 is_stmt 1 view .LVU117
 247:Core/Src/main.cpp ****   {
 462              		.loc 1 247 24 is_stmt 0 view .LVU118
 463 003c FFF7FEFF 		bl	HAL_TIM_Base_Init
 464              	.LVL23:
 247:Core/Src/main.cpp ****   {
 465              		.loc 1 247 3 view .LVU119
ARM GAS  /tmp/ccvbHP25.s 			page 20


 466 0040 20BB     		cbnz	r0, .L25
 251:Core/Src/main.cpp ****   if (HAL_TIM_ConfigClockSource(&htim2, &sClockSourceConfig) != HAL_OK)
 467              		.loc 1 251 3 is_stmt 1 view .LVU120
 251:Core/Src/main.cpp ****   if (HAL_TIM_ConfigClockSource(&htim2, &sClockSourceConfig) != HAL_OK)
 468              		.loc 1 251 34 is_stmt 0 view .LVU121
 469 0042 4FF48053 		mov	r3, #4096
 470 0046 0A93     		str	r3, [sp, #40]
 252:Core/Src/main.cpp ****   {
 471              		.loc 1 252 3 is_stmt 1 view .LVU122
 252:Core/Src/main.cpp ****   {
 472              		.loc 1 252 32 is_stmt 0 view .LVU123
 473 0048 0AA9     		add	r1, sp, #40
 474 004a 1548     		ldr	r0, .L30
 475 004c FFF7FEFF 		bl	HAL_TIM_ConfigClockSource
 476              	.LVL24:
 252:Core/Src/main.cpp ****   {
 477              		.loc 1 252 3 view .LVU124
 478 0050 F0B9     		cbnz	r0, .L26
 256:Core/Src/main.cpp ****   {
 479              		.loc 1 256 3 is_stmt 1 view .LVU125
 256:Core/Src/main.cpp ****   {
 480              		.loc 1 256 22 is_stmt 0 view .LVU126
 481 0052 1348     		ldr	r0, .L30
 482 0054 FFF7FEFF 		bl	HAL_TIM_OC_Init
 483              	.LVL25:
 256:Core/Src/main.cpp ****   {
 484              		.loc 1 256 3 view .LVU127
 485 0058 E0B9     		cbnz	r0, .L27
 260:Core/Src/main.cpp ****   sMasterConfig.MasterSlaveMode = TIM_MASTERSLAVEMODE_DISABLE;
 486              		.loc 1 260 3 is_stmt 1 view .LVU128
 260:Core/Src/main.cpp ****   sMasterConfig.MasterSlaveMode = TIM_MASTERSLAVEMODE_DISABLE;
 487              		.loc 1 260 37 is_stmt 0 view .LVU129
 488 005a 0023     		movs	r3, #0
 489 005c 0793     		str	r3, [sp, #28]
 261:Core/Src/main.cpp ****   if (HAL_TIMEx_MasterConfigSynchronization(&htim2, &sMasterConfig) != HAL_OK)
 490              		.loc 1 261 3 is_stmt 1 view .LVU130
 261:Core/Src/main.cpp ****   if (HAL_TIMEx_MasterConfigSynchronization(&htim2, &sMasterConfig) != HAL_OK)
 491              		.loc 1 261 33 is_stmt 0 view .LVU131
 492 005e 0993     		str	r3, [sp, #36]
 262:Core/Src/main.cpp ****   {
 493              		.loc 1 262 3 is_stmt 1 view .LVU132
 262:Core/Src/main.cpp ****   {
 494              		.loc 1 262 44 is_stmt 0 view .LVU133
 495 0060 07A9     		add	r1, sp, #28
 496 0062 0F48     		ldr	r0, .L30
 497 0064 FFF7FEFF 		bl	HAL_TIMEx_MasterConfigSynchronization
 498              	.LVL26:
 262:Core/Src/main.cpp ****   {
 499              		.loc 1 262 3 view .LVU134
 500 0068 B0B9     		cbnz	r0, .L28
 266:Core/Src/main.cpp ****   sConfigOC.Pulse = 0;
 501              		.loc 1 266 3 is_stmt 1 view .LVU135
 266:Core/Src/main.cpp ****   sConfigOC.Pulse = 0;
 502              		.loc 1 266 20 is_stmt 0 view .LVU136
 503 006a 3023     		movs	r3, #48
 504 006c 0093     		str	r3, [sp]
 267:Core/Src/main.cpp ****   sConfigOC.OCPolarity = TIM_OCPOLARITY_HIGH;
ARM GAS  /tmp/ccvbHP25.s 			page 21


 505              		.loc 1 267 3 is_stmt 1 view .LVU137
 267:Core/Src/main.cpp ****   sConfigOC.OCPolarity = TIM_OCPOLARITY_HIGH;
 506              		.loc 1 267 19 is_stmt 0 view .LVU138
 507 006e 0022     		movs	r2, #0
 508 0070 0192     		str	r2, [sp, #4]
 268:Core/Src/main.cpp ****   sConfigOC.OCFastMode = TIM_OCFAST_DISABLE;
 509              		.loc 1 268 3 is_stmt 1 view .LVU139
 268:Core/Src/main.cpp ****   sConfigOC.OCFastMode = TIM_OCFAST_DISABLE;
 510              		.loc 1 268 24 is_stmt 0 view .LVU140
 511 0072 0292     		str	r2, [sp, #8]
 269:Core/Src/main.cpp ****   if (HAL_TIM_OC_ConfigChannel(&htim2, &sConfigOC, TIM_CHANNEL_1) != HAL_OK)
 512              		.loc 1 269 3 is_stmt 1 view .LVU141
 269:Core/Src/main.cpp ****   if (HAL_TIM_OC_ConfigChannel(&htim2, &sConfigOC, TIM_CHANNEL_1) != HAL_OK)
 513              		.loc 1 269 24 is_stmt 0 view .LVU142
 514 0074 0492     		str	r2, [sp, #16]
 270:Core/Src/main.cpp ****   {
 515              		.loc 1 270 3 is_stmt 1 view .LVU143
 270:Core/Src/main.cpp ****   {
 516              		.loc 1 270 31 is_stmt 0 view .LVU144
 517 0076 6946     		mov	r1, sp
 518 0078 0948     		ldr	r0, .L30
 519 007a FFF7FEFF 		bl	HAL_TIM_OC_ConfigChannel
 520              	.LVL27:
 270:Core/Src/main.cpp ****   {
 521              		.loc 1 270 3 view .LVU145
 522 007e 68B9     		cbnz	r0, .L29
 277:Core/Src/main.cpp **** 
 523              		.loc 1 277 3 is_stmt 1 view .LVU146
 277:Core/Src/main.cpp **** 
 524              		.loc 1 277 22 is_stmt 0 view .LVU147
 525 0080 0748     		ldr	r0, .L30
 526 0082 FFF7FEFF 		bl	HAL_TIM_MspPostInit
 527              	.LVL28:
 279:Core/Src/main.cpp **** 
 528              		.loc 1 279 1 view .LVU148
 529 0086 0FB0     		add	sp, sp, #60
 530              	.LCFI7:
 531              		.cfi_remember_state
 532              		.cfi_def_cfa_offset 4
 533              		@ sp needed
 534 0088 5DF804FB 		ldr	pc, [sp], #4
 535              	.L25:
 536              	.LCFI8:
 537              		.cfi_restore_state
 249:Core/Src/main.cpp ****   }
 538              		.loc 1 249 5 is_stmt 1 view .LVU149
 249:Core/Src/main.cpp ****   }
 539              		.loc 1 249 18 is_stmt 0 view .LVU150
 540 008c FFF7FEFF 		bl	Error_Handler
 541              	.LVL29:
 542              	.L26:
 254:Core/Src/main.cpp ****   }
 543              		.loc 1 254 5 is_stmt 1 view .LVU151
 254:Core/Src/main.cpp ****   }
 544              		.loc 1 254 18 is_stmt 0 view .LVU152
 545 0090 FFF7FEFF 		bl	Error_Handler
 546              	.LVL30:
ARM GAS  /tmp/ccvbHP25.s 			page 22


 547              	.L27:
 258:Core/Src/main.cpp ****   }
 548              		.loc 1 258 5 is_stmt 1 view .LVU153
 258:Core/Src/main.cpp ****   }
 549              		.loc 1 258 18 is_stmt 0 view .LVU154
 550 0094 FFF7FEFF 		bl	Error_Handler
 551              	.LVL31:
 552              	.L28:
 264:Core/Src/main.cpp ****   }
 553              		.loc 1 264 5 is_stmt 1 view .LVU155
 264:Core/Src/main.cpp ****   }
 554              		.loc 1 264 18 is_stmt 0 view .LVU156
 555 0098 FFF7FEFF 		bl	Error_Handler
 556              	.LVL32:
 557              	.L29:
 272:Core/Src/main.cpp ****   }
 558              		.loc 1 272 5 is_stmt 1 view .LVU157
 272:Core/Src/main.cpp ****   }
 559              		.loc 1 272 18 is_stmt 0 view .LVU158
 560 009c FFF7FEFF 		bl	Error_Handler
 561              	.LVL33:
 562              	.L31:
 563              		.align	2
 564              	.L30:
 565 00a0 00000000 		.word	.LANCHOR0
 566              		.cfi_endproc
 567              	.LFE1258:
 568              		.fnend
 570              		.section	.text._Z18SystemClock_Configv,"ax",%progbits
 571              		.align	1
 572              		.global	_Z18SystemClock_Configv
 573              		.syntax unified
 574              		.thumb
 575              		.thumb_func
 576              		.fpu fpv5-d16
 578              	_Z18SystemClock_Configv:
 579              		.fnstart
 580              	.LFB1257:
 168:Core/Src/main.cpp ****   RCC_OscInitTypeDef RCC_OscInitStruct = {0};
 581              		.loc 1 168 1 is_stmt 1 view -0
 582              		.cfi_startproc
 583              		@ args = 0, pretend = 0, frame = 112
 584              		@ frame_needed = 0, uses_anonymous_args = 0
 585 0000 00B5     		push	{lr}
 586              		.save {lr}
 587              	.LCFI9:
 588              		.cfi_def_cfa_offset 4
 589              		.cfi_offset 14, -4
 590              		.pad #116
 591 0002 9DB0     		sub	sp, sp, #116
 592              	.LCFI10:
 593              		.cfi_def_cfa_offset 120
 169:Core/Src/main.cpp ****   RCC_ClkInitTypeDef RCC_ClkInitStruct = {0};
 594              		.loc 1 169 3 view .LVU160
 169:Core/Src/main.cpp ****   RCC_ClkInitTypeDef RCC_ClkInitStruct = {0};
 595              		.loc 1 169 22 is_stmt 0 view .LVU161
 596 0004 4C22     		movs	r2, #76
ARM GAS  /tmp/ccvbHP25.s 			page 23


 597 0006 0021     		movs	r1, #0
 598 0008 09A8     		add	r0, sp, #36
 599 000a FFF7FEFF 		bl	memset
 600              	.LVL34:
 170:Core/Src/main.cpp **** 
 601              		.loc 1 170 3 is_stmt 1 view .LVU162
 170:Core/Src/main.cpp **** 
 602              		.loc 1 170 22 is_stmt 0 view .LVU163
 603 000e 2022     		movs	r2, #32
 604 0010 0021     		movs	r1, #0
 605 0012 01A8     		add	r0, sp, #4
 606 0014 FFF7FEFF 		bl	memset
 607              	.LVL35:
 174:Core/Src/main.cpp **** 
 608              		.loc 1 174 3 is_stmt 1 view .LVU164
 174:Core/Src/main.cpp **** 
 609              		.loc 1 174 25 is_stmt 0 view .LVU165
 610 0018 0220     		movs	r0, #2
 611 001a FFF7FEFF 		bl	HAL_PWREx_ConfigSupply
 612              	.LVL36:
 178:Core/Src/main.cpp **** 
 613              		.loc 1 178 3 is_stmt 1 view .LVU166
 614              	.LBB11:
 178:Core/Src/main.cpp **** 
 615              		.loc 1 178 3 view .LVU167
 616 001e 0023     		movs	r3, #0
 617 0020 0093     		str	r3, [sp]
 178:Core/Src/main.cpp **** 
 618              		.loc 1 178 3 view .LVU168
 619 0022 214B     		ldr	r3, .L39
 620 0024 9A69     		ldr	r2, [r3, #24]
 621 0026 42F44042 		orr	r2, r2, #49152
 622 002a 9A61     		str	r2, [r3, #24]
 178:Core/Src/main.cpp **** 
 623              		.loc 1 178 3 view .LVU169
 624 002c 9B69     		ldr	r3, [r3, #24]
 625 002e 03F44043 		and	r3, r3, #49152
 626 0032 0093     		str	r3, [sp]
 178:Core/Src/main.cpp **** 
 627              		.loc 1 178 3 view .LVU170
 628 0034 009B     		ldr	r3, [sp]
 629              	.L33:
 630              	.LBE11:
 180:Core/Src/main.cpp **** 
 631              		.loc 1 180 3 view .LVU171
 180:Core/Src/main.cpp **** 
 632              		.loc 1 180 9 view .LVU172
 180:Core/Src/main.cpp **** 
 633              		.loc 1 180 10 is_stmt 0 view .LVU173
 634 0036 1C4B     		ldr	r3, .L39
 635 0038 9B69     		ldr	r3, [r3, #24]
 180:Core/Src/main.cpp **** 
 636              		.loc 1 180 9 view .LVU174
 637 003a 13F4005F 		tst	r3, #8192
 638 003e FAD0     		beq	.L33
 185:Core/Src/main.cpp ****   RCC_OscInitStruct.HSIState = RCC_HSI_DIV1;
 639              		.loc 1 185 3 is_stmt 1 view .LVU175
ARM GAS  /tmp/ccvbHP25.s 			page 24


 185:Core/Src/main.cpp ****   RCC_OscInitStruct.HSIState = RCC_HSI_DIV1;
 640              		.loc 1 185 36 is_stmt 0 view .LVU176
 641 0040 0223     		movs	r3, #2
 642 0042 0993     		str	r3, [sp, #36]
 186:Core/Src/main.cpp ****   RCC_OscInitStruct.HSICalibrationValue = 64;
 643              		.loc 1 186 3 is_stmt 1 view .LVU177
 186:Core/Src/main.cpp ****   RCC_OscInitStruct.HSICalibrationValue = 64;
 644              		.loc 1 186 30 is_stmt 0 view .LVU178
 645 0044 0121     		movs	r1, #1
 646 0046 0C91     		str	r1, [sp, #48]
 187:Core/Src/main.cpp ****   RCC_OscInitStruct.PLL.PLLState = RCC_PLL_ON;
 647              		.loc 1 187 3 is_stmt 1 view .LVU179
 187:Core/Src/main.cpp ****   RCC_OscInitStruct.PLL.PLLState = RCC_PLL_ON;
 648              		.loc 1 187 41 is_stmt 0 view .LVU180
 649 0048 4022     		movs	r2, #64
 650 004a 0D92     		str	r2, [sp, #52]
 188:Core/Src/main.cpp ****   RCC_OscInitStruct.PLL.PLLSource = RCC_PLLSOURCE_HSI;
 651              		.loc 1 188 3 is_stmt 1 view .LVU181
 188:Core/Src/main.cpp ****   RCC_OscInitStruct.PLL.PLLSource = RCC_PLLSOURCE_HSI;
 652              		.loc 1 188 34 is_stmt 0 view .LVU182
 653 004c 1293     		str	r3, [sp, #72]
 189:Core/Src/main.cpp ****   RCC_OscInitStruct.PLL.PLLM = 32;
 654              		.loc 1 189 3 is_stmt 1 view .LVU183
 189:Core/Src/main.cpp ****   RCC_OscInitStruct.PLL.PLLM = 32;
 655              		.loc 1 189 35 is_stmt 0 view .LVU184
 656 004e 0022     		movs	r2, #0
 657 0050 1392     		str	r2, [sp, #76]
 190:Core/Src/main.cpp ****   RCC_OscInitStruct.PLL.PLLN = 200;
 658              		.loc 1 190 3 is_stmt 1 view .LVU185
 190:Core/Src/main.cpp ****   RCC_OscInitStruct.PLL.PLLN = 200;
 659              		.loc 1 190 30 is_stmt 0 view .LVU186
 660 0052 2020     		movs	r0, #32
 661 0054 1490     		str	r0, [sp, #80]
 191:Core/Src/main.cpp ****   RCC_OscInitStruct.PLL.PLLP = 1;
 662              		.loc 1 191 3 is_stmt 1 view .LVU187
 191:Core/Src/main.cpp ****   RCC_OscInitStruct.PLL.PLLP = 1;
 663              		.loc 1 191 30 is_stmt 0 view .LVU188
 664 0056 C820     		movs	r0, #200
 665 0058 1590     		str	r0, [sp, #84]
 192:Core/Src/main.cpp ****   RCC_OscInitStruct.PLL.PLLQ = 2;
 666              		.loc 1 192 3 is_stmt 1 view .LVU189
 192:Core/Src/main.cpp ****   RCC_OscInitStruct.PLL.PLLQ = 2;
 667              		.loc 1 192 30 is_stmt 0 view .LVU190
 668 005a 1691     		str	r1, [sp, #88]
 193:Core/Src/main.cpp ****   RCC_OscInitStruct.PLL.PLLR = 2;
 669              		.loc 1 193 3 is_stmt 1 view .LVU191
 193:Core/Src/main.cpp ****   RCC_OscInitStruct.PLL.PLLR = 2;
 670              		.loc 1 193 30 is_stmt 0 view .LVU192
 671 005c 1793     		str	r3, [sp, #92]
 194:Core/Src/main.cpp ****   RCC_OscInitStruct.PLL.PLLRGE = RCC_PLL1VCIRANGE_1;
 672              		.loc 1 194 3 is_stmt 1 view .LVU193
 194:Core/Src/main.cpp ****   RCC_OscInitStruct.PLL.PLLRGE = RCC_PLL1VCIRANGE_1;
 673              		.loc 1 194 30 is_stmt 0 view .LVU194
 674 005e 1893     		str	r3, [sp, #96]
 195:Core/Src/main.cpp ****   RCC_OscInitStruct.PLL.PLLVCOSEL = RCC_PLL1VCOWIDE;
 675              		.loc 1 195 3 is_stmt 1 view .LVU195
 195:Core/Src/main.cpp ****   RCC_OscInitStruct.PLL.PLLVCOSEL = RCC_PLL1VCOWIDE;
ARM GAS  /tmp/ccvbHP25.s 			page 25


 676              		.loc 1 195 32 is_stmt 0 view .LVU196
 677 0060 0423     		movs	r3, #4
 678 0062 1993     		str	r3, [sp, #100]
 196:Core/Src/main.cpp ****   RCC_OscInitStruct.PLL.PLLFRACN = 0;
 679              		.loc 1 196 3 is_stmt 1 view .LVU197
 196:Core/Src/main.cpp ****   RCC_OscInitStruct.PLL.PLLFRACN = 0;
 680              		.loc 1 196 35 is_stmt 0 view .LVU198
 681 0064 1A92     		str	r2, [sp, #104]
 197:Core/Src/main.cpp ****   if (HAL_RCC_OscConfig(&RCC_OscInitStruct) != HAL_OK)
 682              		.loc 1 197 3 is_stmt 1 view .LVU199
 197:Core/Src/main.cpp ****   if (HAL_RCC_OscConfig(&RCC_OscInitStruct) != HAL_OK)
 683              		.loc 1 197 34 is_stmt 0 view .LVU200
 684 0066 1B92     		str	r2, [sp, #108]
 198:Core/Src/main.cpp ****   {
 685              		.loc 1 198 3 is_stmt 1 view .LVU201
 198:Core/Src/main.cpp ****   {
 686              		.loc 1 198 24 is_stmt 0 view .LVU202
 687 0068 09A8     		add	r0, sp, #36
 688 006a FFF7FEFF 		bl	HAL_RCC_OscConfig
 689              	.LVL37:
 198:Core/Src/main.cpp ****   {
 690              		.loc 1 198 3 view .LVU203
 691 006e B0B9     		cbnz	r0, .L37
 205:Core/Src/main.cpp ****                               |RCC_CLOCKTYPE_PCLK1|RCC_CLOCKTYPE_PCLK2
 692              		.loc 1 205 3 is_stmt 1 view .LVU204
 205:Core/Src/main.cpp ****                               |RCC_CLOCKTYPE_PCLK1|RCC_CLOCKTYPE_PCLK2
 693              		.loc 1 205 31 is_stmt 0 view .LVU205
 694 0070 3F23     		movs	r3, #63
 695 0072 0193     		str	r3, [sp, #4]
 208:Core/Src/main.cpp ****   RCC_ClkInitStruct.SYSCLKDivider = RCC_SYSCLK_DIV1;
 696              		.loc 1 208 3 is_stmt 1 view .LVU206
 208:Core/Src/main.cpp ****   RCC_ClkInitStruct.SYSCLKDivider = RCC_SYSCLK_DIV1;
 697              		.loc 1 208 34 is_stmt 0 view .LVU207
 698 0074 0323     		movs	r3, #3
 699 0076 0293     		str	r3, [sp, #8]
 209:Core/Src/main.cpp ****   RCC_ClkInitStruct.AHBCLKDivider = RCC_HCLK_DIV2;
 700              		.loc 1 209 3 is_stmt 1 view .LVU208
 209:Core/Src/main.cpp ****   RCC_ClkInitStruct.AHBCLKDivider = RCC_HCLK_DIV2;
 701              		.loc 1 209 35 is_stmt 0 view .LVU209
 702 0078 0023     		movs	r3, #0
 703 007a 0393     		str	r3, [sp, #12]
 210:Core/Src/main.cpp ****   RCC_ClkInitStruct.APB3CLKDivider = RCC_APB3_DIV2;
 704              		.loc 1 210 3 is_stmt 1 view .LVU210
 210:Core/Src/main.cpp ****   RCC_ClkInitStruct.APB3CLKDivider = RCC_APB3_DIV2;
 705              		.loc 1 210 35 is_stmt 0 view .LVU211
 706 007c 0823     		movs	r3, #8
 707 007e 0493     		str	r3, [sp, #16]
 211:Core/Src/main.cpp ****   RCC_ClkInitStruct.APB1CLKDivider = RCC_APB1_DIV2;
 708              		.loc 1 211 3 is_stmt 1 view .LVU212
 211:Core/Src/main.cpp ****   RCC_ClkInitStruct.APB1CLKDivider = RCC_APB1_DIV2;
 709              		.loc 1 211 36 is_stmt 0 view .LVU213
 710 0080 4023     		movs	r3, #64
 711 0082 0593     		str	r3, [sp, #20]
 212:Core/Src/main.cpp ****   RCC_ClkInitStruct.APB2CLKDivider = RCC_APB2_DIV2;
 712              		.loc 1 212 3 is_stmt 1 view .LVU214
 212:Core/Src/main.cpp ****   RCC_ClkInitStruct.APB2CLKDivider = RCC_APB2_DIV2;
 713              		.loc 1 212 36 is_stmt 0 view .LVU215
ARM GAS  /tmp/ccvbHP25.s 			page 26


 714 0084 0693     		str	r3, [sp, #24]
 213:Core/Src/main.cpp ****   RCC_ClkInitStruct.APB4CLKDivider = RCC_APB4_DIV2;
 715              		.loc 1 213 3 is_stmt 1 view .LVU216
 213:Core/Src/main.cpp ****   RCC_ClkInitStruct.APB4CLKDivider = RCC_APB4_DIV2;
 716              		.loc 1 213 36 is_stmt 0 view .LVU217
 717 0086 4FF48062 		mov	r2, #1024
 718 008a 0792     		str	r2, [sp, #28]
 214:Core/Src/main.cpp **** 
 719              		.loc 1 214 3 is_stmt 1 view .LVU218
 214:Core/Src/main.cpp **** 
 720              		.loc 1 214 36 is_stmt 0 view .LVU219
 721 008c 0893     		str	r3, [sp, #32]
 216:Core/Src/main.cpp ****   {
 722              		.loc 1 216 3 is_stmt 1 view .LVU220
 216:Core/Src/main.cpp ****   {
 723              		.loc 1 216 26 is_stmt 0 view .LVU221
 724 008e 0221     		movs	r1, #2
 725 0090 01A8     		add	r0, sp, #4
 726 0092 FFF7FEFF 		bl	HAL_RCC_ClockConfig
 727              	.LVL38:
 216:Core/Src/main.cpp ****   {
 728              		.loc 1 216 3 view .LVU222
 729 0096 20B9     		cbnz	r0, .L38
 220:Core/Src/main.cpp **** 
 730              		.loc 1 220 1 view .LVU223
 731 0098 1DB0     		add	sp, sp, #116
 732              	.LCFI11:
 733              		.cfi_remember_state
 734              		.cfi_def_cfa_offset 4
 735              		@ sp needed
 736 009a 5DF804FB 		ldr	pc, [sp], #4
 737              	.L37:
 738              	.LCFI12:
 739              		.cfi_restore_state
 200:Core/Src/main.cpp ****   }
 740              		.loc 1 200 5 is_stmt 1 view .LVU224
 200:Core/Src/main.cpp ****   }
 741              		.loc 1 200 18 is_stmt 0 view .LVU225
 742 009e FFF7FEFF 		bl	Error_Handler
 743              	.LVL39:
 744              	.L38:
 218:Core/Src/main.cpp ****   }
 745              		.loc 1 218 5 is_stmt 1 view .LVU226
 218:Core/Src/main.cpp ****   }
 746              		.loc 1 218 18 is_stmt 0 view .LVU227
 747 00a2 FFF7FEFF 		bl	Error_Handler
 748              	.LVL40:
 749              	.L40:
 750 00a6 00BF     		.align	2
 751              	.L39:
 752 00a8 00480258 		.word	1476544512
 753              		.cfi_endproc
 754              	.LFE1257:
 755              		.fnend
 757              		.section	.text.main,"ax",%progbits
 758              		.align	1
 759              		.global	main
ARM GAS  /tmp/ccvbHP25.s 			page 27


 760              		.syntax unified
 761              		.thumb
 762              		.thumb_func
 763              		.fpu fpv5-d16
 765              	main:
 766              		.fnstart
 767              	.LFB1256:
  79:Core/Src/main.cpp ****   /* USER CODE BEGIN 1 */
 768              		.loc 1 79 1 is_stmt 1 view -0
 769              		.cfi_startproc
 770              		@ args = 0, pretend = 0, frame = 0
 771              		@ frame_needed = 0, uses_anonymous_args = 0
 772 0000 38B5     		push	{r3, r4, r5, lr}
 773              		.save {r3, r4, r5, lr}
 774              	.LCFI13:
 775              		.cfi_def_cfa_offset 16
 776              		.cfi_offset 3, -16
 777              		.cfi_offset 4, -12
 778              		.cfi_offset 5, -8
 779              		.cfi_offset 14, -4
  83:Core/Src/main.cpp ****   STM32LED::LED2= new STM32LED::LED(GPIOE, GPIO_PIN_1);
 780              		.loc 1 83 3 view .LVU229
  83:Core/Src/main.cpp ****   STM32LED::LED2= new STM32LED::LED(GPIOE, GPIO_PIN_1);
 781              		.loc 1 83 54 is_stmt 0 view .LVU230
 782 0002 0C20     		movs	r0, #12
 783              	.LEHB0:
 784 0004 FFF7FEFF 		bl	_Znwj
 785              	.LVL41:
 786              	.LEHE0:
 787 0008 0446     		mov	r4, r0
 788 000a 0122     		movs	r2, #1
 789 000c 2D49     		ldr	r1, .L52
 790              	.LEHB1:
 791 000e FFF7FEFF 		bl	_ZN8STM32LED3LEDC1EP12GPIO_TypeDeft
 792              	.LVL42:
 793              	.LEHE1:
  83:Core/Src/main.cpp ****   STM32LED::LED2= new STM32LED::LED(GPIOE, GPIO_PIN_1);
 794              		.loc 1 83 17 discriminator 2 view .LVU231
 795 0012 2D4B     		ldr	r3, .L52+4
 796 0014 1C60     		str	r4, [r3]
  84:Core/Src/main.cpp ****   STM32LED::LED3= new STM32LED::LED(GPIOB, GPIO_PIN_14);
 797              		.loc 1 84 3 is_stmt 1 discriminator 2 view .LVU232
  84:Core/Src/main.cpp ****   STM32LED::LED3= new STM32LED::LED(GPIOB, GPIO_PIN_14);
 798              		.loc 1 84 54 is_stmt 0 discriminator 2 view .LVU233
 799 0016 0C20     		movs	r0, #12
 800              	.LEHB2:
 801 0018 FFF7FEFF 		bl	_Znwj
 802              	.LVL43:
 803              	.LEHE2:
 804 001c 0446     		mov	r4, r0
 805 001e 0222     		movs	r2, #2
 806 0020 2A49     		ldr	r1, .L52+8
 807              	.LEHB3:
 808 0022 FFF7FEFF 		bl	_ZN8STM32LED3LEDC1EP12GPIO_TypeDeft
 809              	.LVL44:
 810              	.LEHE3:
  84:Core/Src/main.cpp ****   STM32LED::LED3= new STM32LED::LED(GPIOB, GPIO_PIN_14);
ARM GAS  /tmp/ccvbHP25.s 			page 28


 811              		.loc 1 84 17 discriminator 2 view .LVU234
 812 0026 2A4B     		ldr	r3, .L52+12
 813 0028 1C60     		str	r4, [r3]
  85:Core/Src/main.cpp **** 
 814              		.loc 1 85 3 is_stmt 1 discriminator 2 view .LVU235
  85:Core/Src/main.cpp **** 
 815              		.loc 1 85 55 is_stmt 0 discriminator 2 view .LVU236
 816 002a 0C20     		movs	r0, #12
 817              	.LEHB4:
 818 002c FFF7FEFF 		bl	_Znwj
 819              	.LVL45:
 820              	.LEHE4:
 821 0030 0446     		mov	r4, r0
 822 0032 4FF48042 		mov	r2, #16384
 823 0036 2349     		ldr	r1, .L52
 824              	.LEHB5:
 825 0038 FFF7FEFF 		bl	_ZN8STM32LED3LEDC1EP12GPIO_TypeDeft
 826              	.LVL46:
 827              	.LEHE5:
  85:Core/Src/main.cpp **** 
 828              		.loc 1 85 17 discriminator 2 view .LVU237
 829 003c 254B     		ldr	r3, .L52+16
 830 003e 1C60     		str	r4, [r3]
  88:Core/Src/main.cpp **** 
 831              		.loc 1 88 3 is_stmt 1 discriminator 2 view .LVU238
  88:Core/Src/main.cpp **** 
 832              		.loc 1 88 100 is_stmt 0 discriminator 2 view .LVU239
 833 0040 1420     		movs	r0, #20
 834              	.LEHB6:
 835 0042 FFF7FEFF 		bl	_Znwj
 836              	.LVL47:
 837              	.LEHE6:
 838 0046 0446     		mov	r4, r0
 839 0048 234B     		ldr	r3, .L52+20
 840 004a 0122     		movs	r2, #1
 841 004c 2349     		ldr	r1, .L52+24
 842              	.LEHB7:
 843 004e FFF7FEFF 		bl	_ZN19STM32_motor_control13motor_controlC1EP12GPIO_TypeDeftP17TIM_HandleTypeDef
 844              	.LVL48:
 845              	.LEHE7:
  88:Core/Src/main.cpp **** 
 846              		.loc 1 88 32 discriminator 2 view .LVU240
 847 0052 234D     		ldr	r5, .L52+28
 848 0054 2C60     		str	r4, [r5]
  95:Core/Src/main.cpp **** 
 849              		.loc 1 95 3 is_stmt 1 discriminator 2 view .LVU241
 850              	.LEHB8:
  95:Core/Src/main.cpp **** 
 851              		.loc 1 95 11 is_stmt 0 discriminator 2 view .LVU242
 852 0056 FFF7FEFF 		bl	HAL_Init
 853              	.LVL49:
 102:Core/Src/main.cpp **** 
 854              		.loc 1 102 3 is_stmt 1 discriminator 2 view .LVU243
 102:Core/Src/main.cpp **** 
 855              		.loc 1 102 21 is_stmt 0 discriminator 2 view .LVU244
 856 005a FFF7FEFF 		bl	_Z18SystemClock_Configv
 857              	.LVL50:
ARM GAS  /tmp/ccvbHP25.s 			page 29


 109:Core/Src/main.cpp ****   MX_TIM2_Init();
 858              		.loc 1 109 3 is_stmt 1 discriminator 2 view .LVU245
 109:Core/Src/main.cpp ****   MX_TIM2_Init();
 859              		.loc 1 109 15 is_stmt 0 discriminator 2 view .LVU246
 860 005e FFF7FEFF 		bl	_ZL12MX_GPIO_Initv
 861              	.LVL51:
 110:Core/Src/main.cpp ****   /* USER CODE BEGIN 2 */
 862              		.loc 1 110 3 is_stmt 1 discriminator 2 view .LVU247
 110:Core/Src/main.cpp ****   /* USER CODE BEGIN 2 */
 863              		.loc 1 110 15 is_stmt 0 discriminator 2 view .LVU248
 864 0062 FFF7FEFF 		bl	_ZL12MX_TIM2_Initv
 865              	.LVL52:
 112:Core/Src/main.cpp ****   /* USER CODE END 2 */
 866              		.loc 1 112 3 is_stmt 1 discriminator 2 view .LVU249
 112:Core/Src/main.cpp ****   /* USER CODE END 2 */
 867              		.loc 1 112 19 is_stmt 0 discriminator 2 view .LVU250
 868 0066 0021     		movs	r1, #0
 869 0068 1B48     		ldr	r0, .L52+20
 870 006a FFF7FEFF 		bl	HAL_TIM_OC_Start
 871              	.LVL53:
 116:Core/Src/main.cpp **** 
 872              		.loc 1 116 3 is_stmt 1 discriminator 2 view .LVU251
 116:Core/Src/main.cpp **** 
 873              		.loc 1 116 21 is_stmt 0 discriminator 2 view .LVU252
 874 006e FFF7FEFF 		bl	osKernelInitialize
 875              	.LVL54:
 136:Core/Src/main.cpp **** 
 876              		.loc 1 136 3 is_stmt 1 discriminator 2 view .LVU253
 136:Core/Src/main.cpp **** 
 877              		.loc 1 136 34 is_stmt 0 discriminator 2 view .LVU254
 878 0072 1C4A     		ldr	r2, .L52+32
 879 0074 0021     		movs	r1, #0
 880 0076 1C48     		ldr	r0, .L52+36
 881 0078 FFF7FEFF 		bl	osThreadNew
 882              	.LVL55:
 136:Core/Src/main.cpp **** 
 883              		.loc 1 136 21 discriminator 2 view .LVU255
 884 007c 1B4B     		ldr	r3, .L52+40
 885 007e 1860     		str	r0, [r3]
 144:Core/Src/main.cpp ****   STM32_motor_control::motorc1 -> adjust_timer_frequency();
 886              		.loc 1 144 3 is_stmt 1 discriminator 2 view .LVU256
 144:Core/Src/main.cpp ****   STM32_motor_control::motorc1 -> adjust_timer_frequency();
 887              		.loc 1 144 60 is_stmt 0 discriminator 2 view .LVU257
 888 0080 0A21     		movs	r1, #10
 889 0082 2868     		ldr	r0, [r5]
 890 0084 FFF7FEFF 		bl	_ZN19STM32_motor_control13motor_control25calculate_timer_frequencyEt
 891              	.LVL56:
 145:Core/Src/main.cpp **** 
 892              		.loc 1 145 3 is_stmt 1 discriminator 2 view .LVU258
 145:Core/Src/main.cpp **** 
 893              		.loc 1 145 57 is_stmt 0 discriminator 2 view .LVU259
 894 0088 2868     		ldr	r0, [r5]
 895 008a FFF7FEFF 		bl	_ZN19STM32_motor_control13motor_control22adjust_timer_frequencyEv
 896              	.LVL57:
 150:Core/Src/main.cpp ****   /* We should never get here as control is now taken by the scheduler */
 897              		.loc 1 150 3 is_stmt 1 discriminator 2 view .LVU260
 150:Core/Src/main.cpp ****   /* We should never get here as control is now taken by the scheduler */
ARM GAS  /tmp/ccvbHP25.s 			page 30


 898              		.loc 1 150 16 is_stmt 0 discriminator 2 view .LVU261
 899 008e FFF7FEFF 		bl	osKernelStart
 900              	.LVL58:
 901              	.L42:
 154:Core/Src/main.cpp ****   {
 902              		.loc 1 154 3 is_stmt 1 discriminator 1 view .LVU262
 154:Core/Src/main.cpp ****   {
 903              		.loc 1 154 3 discriminator 1 view .LVU263
 904 0092 FEE7     		b	.L42
 905              	.L47:
  83:Core/Src/main.cpp ****   STM32LED::LED2= new STM32LED::LED(GPIOE, GPIO_PIN_1);
 906              		.loc 1 83 54 is_stmt 0 view .LVU264
 907 0094 0C21     		movs	r1, #12
 908 0096 2046     		mov	r0, r4
 909 0098 FFF7FEFF 		bl	_ZdlPvj
 910              	.LVL59:
 911 009c FFF7FEFF 		bl	__cxa_end_cleanup
 912              	.LVL60:
 913              	.L48:
  84:Core/Src/main.cpp ****   STM32LED::LED3= new STM32LED::LED(GPIOB, GPIO_PIN_14);
 914              		.loc 1 84 54 view .LVU265
 915 00a0 0C21     		movs	r1, #12
 916 00a2 2046     		mov	r0, r4
 917 00a4 FFF7FEFF 		bl	_ZdlPvj
 918              	.LVL61:
 919 00a8 FFF7FEFF 		bl	__cxa_end_cleanup
 920              	.LVL62:
 921              	.L49:
  85:Core/Src/main.cpp **** 
 922              		.loc 1 85 55 view .LVU266
 923 00ac 0C21     		movs	r1, #12
 924 00ae 2046     		mov	r0, r4
 925 00b0 FFF7FEFF 		bl	_ZdlPvj
 926              	.LVL63:
 927 00b4 FFF7FEFF 		bl	__cxa_end_cleanup
 928              	.LVL64:
 929              	.L50:
  88:Core/Src/main.cpp **** 
 930              		.loc 1 88 100 view .LVU267
 931 00b8 1421     		movs	r1, #20
 932 00ba 2046     		mov	r0, r4
 933 00bc FFF7FEFF 		bl	_ZdlPvj
 934              	.LVL65:
 935 00c0 FFF7FEFF 		bl	__cxa_end_cleanup
 936              	.LVL66:
 937              	.LEHE8:
 938              	.L53:
 939              		.align	2
 940              	.L52:
 941 00c4 00040258 		.word	1476527104
 942 00c8 00000000 		.word	_ZN8STM32LED4LED1E
 943 00cc 00100258 		.word	1476530176
 944 00d0 00000000 		.word	_ZN8STM32LED4LED2E
 945 00d4 00000000 		.word	_ZN8STM32LED4LED3E
 946 00d8 00000000 		.word	.LANCHOR0
 947 00dc 00000258 		.word	1476526080
 948 00e0 00000000 		.word	_ZN19STM32_motor_control7motorc1E
ARM GAS  /tmp/ccvbHP25.s 			page 31


 949 00e4 00000000 		.word	.LANCHOR1
 950 00e8 00000000 		.word	_Z16StartDefaultTaskPv
 951 00ec 00000000 		.word	.LANCHOR2
 952              		.cfi_endproc
 953              	.LFE1256:
 954              		.global	__gxx_personality_v0
 955              		.personality	__gxx_personality_v0
 956              		.handlerdata
 957              	.LLSDA1256:
 958 0008 FF       		.byte	0xff
 959 0009 FF       		.byte	0xff
 960 000a 01       		.byte	0x1
 961 000b 28       		.uleb128 .LLSDACSE1256-.LLSDACSB1256
 962              	.LLSDACSB1256:
 963 000c 04       		.uleb128 .LEHB0-.LFB1256
 964 000d 04       		.uleb128 .LEHE0-.LEHB0
 965 000e 00       		.uleb128 0
 966 000f 00       		.uleb128 0
 967 0010 0E       		.uleb128 .LEHB1-.LFB1256
 968 0011 04       		.uleb128 .LEHE1-.LEHB1
 969 0012 9401     		.uleb128 .L47-.LFB1256
 970 0014 00       		.uleb128 0
 971 0015 18       		.uleb128 .LEHB2-.LFB1256
 972 0016 04       		.uleb128 .LEHE2-.LEHB2
 973 0017 00       		.uleb128 0
 974 0018 00       		.uleb128 0
 975 0019 22       		.uleb128 .LEHB3-.LFB1256
 976 001a 04       		.uleb128 .LEHE3-.LEHB3
 977 001b A001     		.uleb128 .L48-.LFB1256
 978 001d 00       		.uleb128 0
 979 001e 2C       		.uleb128 .LEHB4-.LFB1256
 980 001f 04       		.uleb128 .LEHE4-.LEHB4
 981 0020 00       		.uleb128 0
 982 0021 00       		.uleb128 0
 983 0022 38       		.uleb128 .LEHB5-.LFB1256
 984 0023 04       		.uleb128 .LEHE5-.LEHB5
 985 0024 AC01     		.uleb128 .L49-.LFB1256
 986 0026 00       		.uleb128 0
 987 0027 42       		.uleb128 .LEHB6-.LFB1256
 988 0028 04       		.uleb128 .LEHE6-.LEHB6
 989 0029 00       		.uleb128 0
 990 002a 00       		.uleb128 0
 991 002b 4E       		.uleb128 .LEHB7-.LFB1256
 992 002c 04       		.uleb128 .LEHE7-.LEHB7
 993 002d B801     		.uleb128 .L50-.LFB1256
 994 002f 00       		.uleb128 0
 995 0030 56       		.uleb128 .LEHB8-.LFB1256
 996 0031 6E       		.uleb128 .LEHE8-.LEHB8
 997 0032 00       		.uleb128 0
 998 0033 00       		.uleb128 0
 999              	.LLSDACSE1256:
 1000              		.section	.text.main
 1001              		.fnend
 1003              		.section	.rodata.str1.4,"aMS",%progbits,1
 1004              		.align	2
 1005              	.LC0:
 1006 0000 64656661 		.ascii	"defaultTask\000"
ARM GAS  /tmp/ccvbHP25.s 			page 32


 1006      756C7454 
 1006      61736B00 
 1007              		.global	defaultTaskHandle
 1008              		.global	htim2
 1009              		.section	.bss.defaultTaskHandle,"aw",%nobits
 1010              		.align	2
 1011              		.set	.LANCHOR2,. + 0
 1014              	defaultTaskHandle:
 1015 0000 00000000 		.space	4
 1016              		.section	.bss.htim2,"aw",%nobits
 1017              		.align	2
 1018              		.set	.LANCHOR0,. + 0
 1021              	htim2:
 1022 0000 00000000 		.space	76
 1022      00000000 
 1022      00000000 
 1022      00000000 
 1022      00000000 
 1023              		.section	.rodata._ZL22defaultTask_attributes,"a"
 1024              		.align	2
 1025              		.set	.LANCHOR1,. + 0
 1028              	_ZL22defaultTask_attributes:
 1029 0000 00000000 		.word	.LC0
 1030 0004 00000000 		.space	16
 1030      00000000 
 1030      00000000 
 1030      00000000 
 1031 0014 00020000 		.word	512
 1032 0018 18000000 		.word	24
 1033 001c 00000000 		.space	8
 1033      00000000 
 1034              		.text
 1035              	.Letext0:
 1036              		.file 3 "/usr/lib/gcc/arm-none-eabi/10.3.1/include/stdint.h"
 1037              		.file 4 "Drivers/CMSIS/Device/ST/STM32H7xx/Include/stm32h733xx.h"
 1038              		.file 5 "/usr/include/newlib/c++/10.3.1/cmath"
 1039              		.file 6 "/usr/include/newlib/c++/10.3.1/type_traits"
 1040              		.file 7 "/usr/include/newlib/c++/10.3.1/concepts"
 1041              		.file 8 "/usr/include/newlib/c++/10.3.1/arm-none-eabi/thumb/v7e-m+dp/hard/bits/c++config.h"
 1042              		.file 9 "/usr/include/newlib/c++/10.3.1/bits/iterator_concepts.h"
 1043              		.file 10 "/usr/include/newlib/c++/10.3.1/compare"
 1044              		.file 11 "/usr/include/newlib/c++/10.3.1/bits/exception_ptr.h"
 1045              		.file 12 "/usr/include/newlib/c++/10.3.1/debug/debug.h"
 1046              		.file 13 "/usr/include/newlib/c++/10.3.1/bits/std_abs.h"
 1047              		.file 14 "/usr/include/newlib/c++/10.3.1/bits/predefined_ops.h"
 1048              		.file 15 "/usr/include/newlib/math.h"
 1049              		.file 16 "/usr/include/newlib/c++/10.3.1/bits/ptr_traits.h"
 1050              		.file 17 "/usr/include/newlib/c++/10.3.1/math.h"
 1051              		.file 18 "Drivers/STM32H7xx_HAL_Driver/Inc/stm32h7xx_hal_def.h"
 1052              		.file 19 "Drivers/STM32H7xx_HAL_Driver/Inc/stm32h7xx_hal_rcc.h"
 1053              		.file 20 "Drivers/STM32H7xx_HAL_Driver/Inc/stm32h7xx_hal_gpio.h"
 1054              		.file 21 "Drivers/STM32H7xx_HAL_Driver/Inc/stm32h7xx_hal_dma.h"
 1055              		.file 22 "Drivers/STM32H7xx_HAL_Driver/Inc/stm32h7xx_hal_tim.h"
 1056              		.file 23 "Drivers/STM32H7xx_HAL_Driver/Inc/stm32h7xx_hal.h"
 1057              		.file 24 "Middlewares/Third_Party/FreeRTOS/Source/CMSIS_RTOS_V2/cmsis_os2.h"
 1058              		.file 25 "Modules/inc/LED.h"
 1059              		.file 26 "Modules/inc/motorControl.h"
ARM GAS  /tmp/ccvbHP25.s 			page 33


 1060              		.file 27 "Drivers/STM32H7xx_HAL_Driver/Inc/stm32h7xx_hal_tim_ex.h"
 1061              		.file 28 "Core/Inc/main.h"
 1062              		.file 29 "Drivers/STM32H7xx_HAL_Driver/Inc/stm32h7xx_hal_pwr_ex.h"
 1063              		.file 30 "/usr/include/newlib/c++/10.3.1/new"
 1064              		.file 31 "<built-in>"
ARM GAS  /tmp/ccvbHP25.s 			page 34

