ARM GAS  /tmp/ccApgZAB.s 			page 1


   1              		.cpu cortex-m7
   2              		.eabi_attribute 28, 1
   3              		.eabi_attribute 20, 1
   4              		.eabi_attribute 21, 1
   5              		.eabi_attribute 23, 3
   6              		.eabi_attribute 24, 1
   7              		.eabi_attribute 25, 1
   8              		.eabi_attribute 26, 1
   9              		.eabi_attribute 30, 1
  10              		.eabi_attribute 34, 1
  11              		.eabi_attribute 18, 4
  12              		.file	"timers.c"
  13              		.text
  14              	.Ltext0:
  15              		.cfi_sections	.debug_frame
  16              		.section	.text.prvGetNextExpireTime,"ax",%progbits
  17              		.align	1
  18              		.arch armv7e-m
  19              		.syntax unified
  20              		.thumb
  21              		.thumb_func
  22              		.fpu fpv5-d16
  24              	prvGetNextExpireTime:
  25              	.LVL0:
  26              	.LFB18:
  27              		.file 1 "Middlewares/Third_Party/FreeRTOS/Source/timers.c"
   1:Middlewares/Third_Party/FreeRTOS/Source/timers.c **** /*
   2:Middlewares/Third_Party/FreeRTOS/Source/timers.c ****  * FreeRTOS Kernel V10.3.1
   3:Middlewares/Third_Party/FreeRTOS/Source/timers.c ****  * Copyright (C) 2020 Amazon.com, Inc. or its affiliates.  All Rights Reserved.
   4:Middlewares/Third_Party/FreeRTOS/Source/timers.c ****  *
   5:Middlewares/Third_Party/FreeRTOS/Source/timers.c ****  * Permission is hereby granted, free of charge, to any person obtaining a copy of
   6:Middlewares/Third_Party/FreeRTOS/Source/timers.c ****  * this software and associated documentation files (the "Software"), to deal in
   7:Middlewares/Third_Party/FreeRTOS/Source/timers.c ****  * the Software without restriction, including without limitation the rights to
   8:Middlewares/Third_Party/FreeRTOS/Source/timers.c ****  * use, copy, modify, merge, publish, distribute, sublicense, and/or sell copies of
   9:Middlewares/Third_Party/FreeRTOS/Source/timers.c ****  * the Software, and to permit persons to whom the Software is furnished to do so,
  10:Middlewares/Third_Party/FreeRTOS/Source/timers.c ****  * subject to the following conditions:
  11:Middlewares/Third_Party/FreeRTOS/Source/timers.c ****  *
  12:Middlewares/Third_Party/FreeRTOS/Source/timers.c ****  * The above copyright notice and this permission notice shall be included in all
  13:Middlewares/Third_Party/FreeRTOS/Source/timers.c ****  * copies or substantial portions of the Software.
  14:Middlewares/Third_Party/FreeRTOS/Source/timers.c ****  *
  15:Middlewares/Third_Party/FreeRTOS/Source/timers.c ****  * THE SOFTWARE IS PROVIDED "AS IS", WITHOUT WARRANTY OF ANY KIND, EXPRESS OR
  16:Middlewares/Third_Party/FreeRTOS/Source/timers.c ****  * IMPLIED, INCLUDING BUT NOT LIMITED TO THE WARRANTIES OF MERCHANTABILITY, FITNESS
  17:Middlewares/Third_Party/FreeRTOS/Source/timers.c ****  * FOR A PARTICULAR PURPOSE AND NONINFRINGEMENT. IN NO EVENT SHALL THE AUTHORS OR
  18:Middlewares/Third_Party/FreeRTOS/Source/timers.c ****  * COPYRIGHT HOLDERS BE LIABLE FOR ANY CLAIM, DAMAGES OR OTHER LIABILITY, WHETHER
  19:Middlewares/Third_Party/FreeRTOS/Source/timers.c ****  * IN AN ACTION OF CONTRACT, TORT OR OTHERWISE, ARISING FROM, OUT OF OR IN
  20:Middlewares/Third_Party/FreeRTOS/Source/timers.c ****  * CONNECTION WITH THE SOFTWARE OR THE USE OR OTHER DEALINGS IN THE SOFTWARE.
  21:Middlewares/Third_Party/FreeRTOS/Source/timers.c ****  *
  22:Middlewares/Third_Party/FreeRTOS/Source/timers.c ****  * http://www.FreeRTOS.org
  23:Middlewares/Third_Party/FreeRTOS/Source/timers.c ****  * http://aws.amazon.com/freertos
  24:Middlewares/Third_Party/FreeRTOS/Source/timers.c ****  *
  25:Middlewares/Third_Party/FreeRTOS/Source/timers.c ****  * 1 tab == 4 spaces!
  26:Middlewares/Third_Party/FreeRTOS/Source/timers.c ****  */
  27:Middlewares/Third_Party/FreeRTOS/Source/timers.c **** 
  28:Middlewares/Third_Party/FreeRTOS/Source/timers.c **** /* Standard includes. */
  29:Middlewares/Third_Party/FreeRTOS/Source/timers.c **** #include <stdlib.h>
  30:Middlewares/Third_Party/FreeRTOS/Source/timers.c **** 
  31:Middlewares/Third_Party/FreeRTOS/Source/timers.c **** /* Defining MPU_WRAPPERS_INCLUDED_FROM_API_FILE prevents task.h from redefining
ARM GAS  /tmp/ccApgZAB.s 			page 2


  32:Middlewares/Third_Party/FreeRTOS/Source/timers.c **** all the API functions to use the MPU wrappers.  That should only be done when
  33:Middlewares/Third_Party/FreeRTOS/Source/timers.c **** task.h is included from an application file. */
  34:Middlewares/Third_Party/FreeRTOS/Source/timers.c **** #define MPU_WRAPPERS_INCLUDED_FROM_API_FILE
  35:Middlewares/Third_Party/FreeRTOS/Source/timers.c **** 
  36:Middlewares/Third_Party/FreeRTOS/Source/timers.c **** #include "FreeRTOS.h"
  37:Middlewares/Third_Party/FreeRTOS/Source/timers.c **** #include "task.h"
  38:Middlewares/Third_Party/FreeRTOS/Source/timers.c **** #include "queue.h"
  39:Middlewares/Third_Party/FreeRTOS/Source/timers.c **** #include "timers.h"
  40:Middlewares/Third_Party/FreeRTOS/Source/timers.c **** 
  41:Middlewares/Third_Party/FreeRTOS/Source/timers.c **** #if ( INCLUDE_xTimerPendFunctionCall == 1 ) && ( configUSE_TIMERS == 0 )
  42:Middlewares/Third_Party/FreeRTOS/Source/timers.c **** 	#error configUSE_TIMERS must be set to 1 to make the xTimerPendFunctionCall() function available.
  43:Middlewares/Third_Party/FreeRTOS/Source/timers.c **** #endif
  44:Middlewares/Third_Party/FreeRTOS/Source/timers.c **** 
  45:Middlewares/Third_Party/FreeRTOS/Source/timers.c **** /* Lint e9021, e961 and e750 are suppressed as a MISRA exception justified
  46:Middlewares/Third_Party/FreeRTOS/Source/timers.c **** because the MPU ports require MPU_WRAPPERS_INCLUDED_FROM_API_FILE to be defined
  47:Middlewares/Third_Party/FreeRTOS/Source/timers.c **** for the header files above, but not in this file, in order to generate the
  48:Middlewares/Third_Party/FreeRTOS/Source/timers.c **** correct privileged Vs unprivileged linkage and placement. */
  49:Middlewares/Third_Party/FreeRTOS/Source/timers.c **** #undef MPU_WRAPPERS_INCLUDED_FROM_API_FILE /*lint !e9021 !e961 !e750. */
  50:Middlewares/Third_Party/FreeRTOS/Source/timers.c **** 
  51:Middlewares/Third_Party/FreeRTOS/Source/timers.c **** 
  52:Middlewares/Third_Party/FreeRTOS/Source/timers.c **** /* This entire source file will be skipped if the application is not configured
  53:Middlewares/Third_Party/FreeRTOS/Source/timers.c **** to include software timer functionality.  This #if is closed at the very bottom
  54:Middlewares/Third_Party/FreeRTOS/Source/timers.c **** of this file.  If you want to include software timer functionality then ensure
  55:Middlewares/Third_Party/FreeRTOS/Source/timers.c **** configUSE_TIMERS is set to 1 in FreeRTOSConfig.h. */
  56:Middlewares/Third_Party/FreeRTOS/Source/timers.c **** #if ( configUSE_TIMERS == 1 )
  57:Middlewares/Third_Party/FreeRTOS/Source/timers.c **** 
  58:Middlewares/Third_Party/FreeRTOS/Source/timers.c **** /* Misc definitions. */
  59:Middlewares/Third_Party/FreeRTOS/Source/timers.c **** #define tmrNO_DELAY		( TickType_t ) 0U
  60:Middlewares/Third_Party/FreeRTOS/Source/timers.c **** 
  61:Middlewares/Third_Party/FreeRTOS/Source/timers.c **** /* The name assigned to the timer service task.  This can be overridden by
  62:Middlewares/Third_Party/FreeRTOS/Source/timers.c **** defining trmTIMER_SERVICE_TASK_NAME in FreeRTOSConfig.h. */
  63:Middlewares/Third_Party/FreeRTOS/Source/timers.c **** #ifndef configTIMER_SERVICE_TASK_NAME
  64:Middlewares/Third_Party/FreeRTOS/Source/timers.c **** 	#define configTIMER_SERVICE_TASK_NAME "Tmr Svc"
  65:Middlewares/Third_Party/FreeRTOS/Source/timers.c **** #endif
  66:Middlewares/Third_Party/FreeRTOS/Source/timers.c **** 
  67:Middlewares/Third_Party/FreeRTOS/Source/timers.c **** /* Bit definitions used in the ucStatus member of a timer structure. */
  68:Middlewares/Third_Party/FreeRTOS/Source/timers.c **** #define tmrSTATUS_IS_ACTIVE					( ( uint8_t ) 0x01 )
  69:Middlewares/Third_Party/FreeRTOS/Source/timers.c **** #define tmrSTATUS_IS_STATICALLY_ALLOCATED	( ( uint8_t ) 0x02 )
  70:Middlewares/Third_Party/FreeRTOS/Source/timers.c **** #define tmrSTATUS_IS_AUTORELOAD				( ( uint8_t ) 0x04 )
  71:Middlewares/Third_Party/FreeRTOS/Source/timers.c **** 
  72:Middlewares/Third_Party/FreeRTOS/Source/timers.c **** /* The definition of the timers themselves. */
  73:Middlewares/Third_Party/FreeRTOS/Source/timers.c **** typedef struct tmrTimerControl /* The old naming convention is used to prevent breaking kernel awar
  74:Middlewares/Third_Party/FreeRTOS/Source/timers.c **** {
  75:Middlewares/Third_Party/FreeRTOS/Source/timers.c **** 	const char				*pcTimerName;		/*<< Text name.  This is not used by the kernel, it is included simpl
  76:Middlewares/Third_Party/FreeRTOS/Source/timers.c **** 	ListItem_t				xTimerListItem;		/*<< Standard linked list item as used by all kernel features for e
  77:Middlewares/Third_Party/FreeRTOS/Source/timers.c **** 	TickType_t				xTimerPeriodInTicks;/*<< How quickly and often the timer expires. */
  78:Middlewares/Third_Party/FreeRTOS/Source/timers.c **** 	void 					*pvTimerID;			/*<< An ID to identify the timer.  This allows the timer to be identified 
  79:Middlewares/Third_Party/FreeRTOS/Source/timers.c **** 	TimerCallbackFunction_t	pxCallbackFunction;	/*<< The function that will be called when the timer e
  80:Middlewares/Third_Party/FreeRTOS/Source/timers.c **** 	#if( configUSE_TRACE_FACILITY == 1 )
  81:Middlewares/Third_Party/FreeRTOS/Source/timers.c **** 		UBaseType_t			uxTimerNumber;		/*<< An ID assigned by trace tools such as FreeRTOS+Trace */
  82:Middlewares/Third_Party/FreeRTOS/Source/timers.c **** 	#endif
  83:Middlewares/Third_Party/FreeRTOS/Source/timers.c **** 	uint8_t 				ucStatus;			/*<< Holds bits to say if the timer was statically allocated or not, and i
  84:Middlewares/Third_Party/FreeRTOS/Source/timers.c **** } xTIMER;
  85:Middlewares/Third_Party/FreeRTOS/Source/timers.c **** 
  86:Middlewares/Third_Party/FreeRTOS/Source/timers.c **** /* The old xTIMER name is maintained above then typedefed to the new Timer_t
  87:Middlewares/Third_Party/FreeRTOS/Source/timers.c **** name below to enable the use of older kernel aware debuggers. */
  88:Middlewares/Third_Party/FreeRTOS/Source/timers.c **** typedef xTIMER Timer_t;
ARM GAS  /tmp/ccApgZAB.s 			page 3


  89:Middlewares/Third_Party/FreeRTOS/Source/timers.c **** 
  90:Middlewares/Third_Party/FreeRTOS/Source/timers.c **** /* The definition of messages that can be sent and received on the timer queue.
  91:Middlewares/Third_Party/FreeRTOS/Source/timers.c **** Two types of message can be queued - messages that manipulate a software timer,
  92:Middlewares/Third_Party/FreeRTOS/Source/timers.c **** and messages that request the execution of a non-timer related callback.  The
  93:Middlewares/Third_Party/FreeRTOS/Source/timers.c **** two message types are defined in two separate structures, xTimerParametersType
  94:Middlewares/Third_Party/FreeRTOS/Source/timers.c **** and xCallbackParametersType respectively. */
  95:Middlewares/Third_Party/FreeRTOS/Source/timers.c **** typedef struct tmrTimerParameters
  96:Middlewares/Third_Party/FreeRTOS/Source/timers.c **** {
  97:Middlewares/Third_Party/FreeRTOS/Source/timers.c **** 	TickType_t			xMessageValue;		/*<< An optional value used by a subset of commands, for example, whe
  98:Middlewares/Third_Party/FreeRTOS/Source/timers.c **** 	Timer_t *			pxTimer;			/*<< The timer to which the command will be applied. */
  99:Middlewares/Third_Party/FreeRTOS/Source/timers.c **** } TimerParameter_t;
 100:Middlewares/Third_Party/FreeRTOS/Source/timers.c **** 
 101:Middlewares/Third_Party/FreeRTOS/Source/timers.c **** 
 102:Middlewares/Third_Party/FreeRTOS/Source/timers.c **** typedef struct tmrCallbackParameters
 103:Middlewares/Third_Party/FreeRTOS/Source/timers.c **** {
 104:Middlewares/Third_Party/FreeRTOS/Source/timers.c **** 	PendedFunction_t	pxCallbackFunction;	/* << The callback function to execute. */
 105:Middlewares/Third_Party/FreeRTOS/Source/timers.c **** 	void *pvParameter1;						/* << The value that will be used as the callback functions first paramet
 106:Middlewares/Third_Party/FreeRTOS/Source/timers.c **** 	uint32_t ulParameter2;					/* << The value that will be used as the callback functions second para
 107:Middlewares/Third_Party/FreeRTOS/Source/timers.c **** } CallbackParameters_t;
 108:Middlewares/Third_Party/FreeRTOS/Source/timers.c **** 
 109:Middlewares/Third_Party/FreeRTOS/Source/timers.c **** /* The structure that contains the two message types, along with an identifier
 110:Middlewares/Third_Party/FreeRTOS/Source/timers.c **** that is used to determine which message type is valid. */
 111:Middlewares/Third_Party/FreeRTOS/Source/timers.c **** typedef struct tmrTimerQueueMessage
 112:Middlewares/Third_Party/FreeRTOS/Source/timers.c **** {
 113:Middlewares/Third_Party/FreeRTOS/Source/timers.c **** 	BaseType_t			xMessageID;			/*<< The command being sent to the timer service task. */
 114:Middlewares/Third_Party/FreeRTOS/Source/timers.c **** 	union
 115:Middlewares/Third_Party/FreeRTOS/Source/timers.c **** 	{
 116:Middlewares/Third_Party/FreeRTOS/Source/timers.c **** 		TimerParameter_t xTimerParameters;
 117:Middlewares/Third_Party/FreeRTOS/Source/timers.c **** 
 118:Middlewares/Third_Party/FreeRTOS/Source/timers.c **** 		/* Don't include xCallbackParameters if it is not going to be used as
 119:Middlewares/Third_Party/FreeRTOS/Source/timers.c **** 		it makes the structure (and therefore the timer queue) larger. */
 120:Middlewares/Third_Party/FreeRTOS/Source/timers.c **** 		#if ( INCLUDE_xTimerPendFunctionCall == 1 )
 121:Middlewares/Third_Party/FreeRTOS/Source/timers.c **** 			CallbackParameters_t xCallbackParameters;
 122:Middlewares/Third_Party/FreeRTOS/Source/timers.c **** 		#endif /* INCLUDE_xTimerPendFunctionCall */
 123:Middlewares/Third_Party/FreeRTOS/Source/timers.c **** 	} u;
 124:Middlewares/Third_Party/FreeRTOS/Source/timers.c **** } DaemonTaskMessage_t;
 125:Middlewares/Third_Party/FreeRTOS/Source/timers.c **** 
 126:Middlewares/Third_Party/FreeRTOS/Source/timers.c **** /*lint -save -e956 A manual analysis and inspection has been used to determine
 127:Middlewares/Third_Party/FreeRTOS/Source/timers.c **** which static variables must be declared volatile. */
 128:Middlewares/Third_Party/FreeRTOS/Source/timers.c **** 
 129:Middlewares/Third_Party/FreeRTOS/Source/timers.c **** /* The list in which active timers are stored.  Timers are referenced in expire
 130:Middlewares/Third_Party/FreeRTOS/Source/timers.c **** time order, with the nearest expiry time at the front of the list.  Only the
 131:Middlewares/Third_Party/FreeRTOS/Source/timers.c **** timer service task is allowed to access these lists.
 132:Middlewares/Third_Party/FreeRTOS/Source/timers.c **** xActiveTimerList1 and xActiveTimerList2 could be at function scope but that
 133:Middlewares/Third_Party/FreeRTOS/Source/timers.c **** breaks some kernel aware debuggers, and debuggers that reply on removing the
 134:Middlewares/Third_Party/FreeRTOS/Source/timers.c **** static qualifier. */
 135:Middlewares/Third_Party/FreeRTOS/Source/timers.c **** PRIVILEGED_DATA static List_t xActiveTimerList1;
 136:Middlewares/Third_Party/FreeRTOS/Source/timers.c **** PRIVILEGED_DATA static List_t xActiveTimerList2;
 137:Middlewares/Third_Party/FreeRTOS/Source/timers.c **** PRIVILEGED_DATA static List_t *pxCurrentTimerList;
 138:Middlewares/Third_Party/FreeRTOS/Source/timers.c **** PRIVILEGED_DATA static List_t *pxOverflowTimerList;
 139:Middlewares/Third_Party/FreeRTOS/Source/timers.c **** 
 140:Middlewares/Third_Party/FreeRTOS/Source/timers.c **** /* A queue that is used to send commands to the timer service task. */
 141:Middlewares/Third_Party/FreeRTOS/Source/timers.c **** PRIVILEGED_DATA static QueueHandle_t xTimerQueue = NULL;
 142:Middlewares/Third_Party/FreeRTOS/Source/timers.c **** PRIVILEGED_DATA static TaskHandle_t xTimerTaskHandle = NULL;
 143:Middlewares/Third_Party/FreeRTOS/Source/timers.c **** 
 144:Middlewares/Third_Party/FreeRTOS/Source/timers.c **** /*lint -restore */
 145:Middlewares/Third_Party/FreeRTOS/Source/timers.c **** 
ARM GAS  /tmp/ccApgZAB.s 			page 4


 146:Middlewares/Third_Party/FreeRTOS/Source/timers.c **** /*-----------------------------------------------------------*/
 147:Middlewares/Third_Party/FreeRTOS/Source/timers.c **** 
 148:Middlewares/Third_Party/FreeRTOS/Source/timers.c **** #if( configSUPPORT_STATIC_ALLOCATION == 1 )
 149:Middlewares/Third_Party/FreeRTOS/Source/timers.c **** 
 150:Middlewares/Third_Party/FreeRTOS/Source/timers.c **** 	/* If static allocation is supported then the application must provide the
 151:Middlewares/Third_Party/FreeRTOS/Source/timers.c **** 	following callback function - which enables the application to optionally
 152:Middlewares/Third_Party/FreeRTOS/Source/timers.c **** 	provide the memory that will be used by the timer task as the task's stack
 153:Middlewares/Third_Party/FreeRTOS/Source/timers.c **** 	and TCB. */
 154:Middlewares/Third_Party/FreeRTOS/Source/timers.c **** 	extern void vApplicationGetTimerTaskMemory( StaticTask_t **ppxTimerTaskTCBBuffer, StackType_t **pp
 155:Middlewares/Third_Party/FreeRTOS/Source/timers.c **** 
 156:Middlewares/Third_Party/FreeRTOS/Source/timers.c **** #endif
 157:Middlewares/Third_Party/FreeRTOS/Source/timers.c **** 
 158:Middlewares/Third_Party/FreeRTOS/Source/timers.c **** /*
 159:Middlewares/Third_Party/FreeRTOS/Source/timers.c ****  * Initialise the infrastructure used by the timer service task if it has not
 160:Middlewares/Third_Party/FreeRTOS/Source/timers.c ****  * been initialised already.
 161:Middlewares/Third_Party/FreeRTOS/Source/timers.c ****  */
 162:Middlewares/Third_Party/FreeRTOS/Source/timers.c **** static void prvCheckForValidListAndQueue( void ) PRIVILEGED_FUNCTION;
 163:Middlewares/Third_Party/FreeRTOS/Source/timers.c **** 
 164:Middlewares/Third_Party/FreeRTOS/Source/timers.c **** /*
 165:Middlewares/Third_Party/FreeRTOS/Source/timers.c ****  * The timer service task (daemon).  Timer functionality is controlled by this
 166:Middlewares/Third_Party/FreeRTOS/Source/timers.c ****  * task.  Other tasks communicate with the timer service task using the
 167:Middlewares/Third_Party/FreeRTOS/Source/timers.c ****  * xTimerQueue queue.
 168:Middlewares/Third_Party/FreeRTOS/Source/timers.c ****  */
 169:Middlewares/Third_Party/FreeRTOS/Source/timers.c **** static portTASK_FUNCTION_PROTO( prvTimerTask, pvParameters ) PRIVILEGED_FUNCTION;
 170:Middlewares/Third_Party/FreeRTOS/Source/timers.c **** 
 171:Middlewares/Third_Party/FreeRTOS/Source/timers.c **** /*
 172:Middlewares/Third_Party/FreeRTOS/Source/timers.c ****  * Called by the timer service task to interpret and process a command it
 173:Middlewares/Third_Party/FreeRTOS/Source/timers.c ****  * received on the timer queue.
 174:Middlewares/Third_Party/FreeRTOS/Source/timers.c ****  */
 175:Middlewares/Third_Party/FreeRTOS/Source/timers.c **** static void prvProcessReceivedCommands( void ) PRIVILEGED_FUNCTION;
 176:Middlewares/Third_Party/FreeRTOS/Source/timers.c **** 
 177:Middlewares/Third_Party/FreeRTOS/Source/timers.c **** /*
 178:Middlewares/Third_Party/FreeRTOS/Source/timers.c ****  * Insert the timer into either xActiveTimerList1, or xActiveTimerList2,
 179:Middlewares/Third_Party/FreeRTOS/Source/timers.c ****  * depending on if the expire time causes a timer counter overflow.
 180:Middlewares/Third_Party/FreeRTOS/Source/timers.c ****  */
 181:Middlewares/Third_Party/FreeRTOS/Source/timers.c **** static BaseType_t prvInsertTimerInActiveList( Timer_t * const pxTimer, const TickType_t xNextExpiry
 182:Middlewares/Third_Party/FreeRTOS/Source/timers.c **** 
 183:Middlewares/Third_Party/FreeRTOS/Source/timers.c **** /*
 184:Middlewares/Third_Party/FreeRTOS/Source/timers.c ****  * An active timer has reached its expire time.  Reload the timer if it is an
 185:Middlewares/Third_Party/FreeRTOS/Source/timers.c ****  * auto-reload timer, then call its callback.
 186:Middlewares/Third_Party/FreeRTOS/Source/timers.c ****  */
 187:Middlewares/Third_Party/FreeRTOS/Source/timers.c **** static void prvProcessExpiredTimer( const TickType_t xNextExpireTime, const TickType_t xTimeNow ) P
 188:Middlewares/Third_Party/FreeRTOS/Source/timers.c **** 
 189:Middlewares/Third_Party/FreeRTOS/Source/timers.c **** /*
 190:Middlewares/Third_Party/FreeRTOS/Source/timers.c ****  * The tick count has overflowed.  Switch the timer lists after ensuring the
 191:Middlewares/Third_Party/FreeRTOS/Source/timers.c ****  * current timer list does not still reference some timers.
 192:Middlewares/Third_Party/FreeRTOS/Source/timers.c ****  */
 193:Middlewares/Third_Party/FreeRTOS/Source/timers.c **** static void prvSwitchTimerLists( void ) PRIVILEGED_FUNCTION;
 194:Middlewares/Third_Party/FreeRTOS/Source/timers.c **** 
 195:Middlewares/Third_Party/FreeRTOS/Source/timers.c **** /*
 196:Middlewares/Third_Party/FreeRTOS/Source/timers.c ****  * Obtain the current tick count, setting *pxTimerListsWereSwitched to pdTRUE
 197:Middlewares/Third_Party/FreeRTOS/Source/timers.c ****  * if a tick count overflow occurred since prvSampleTimeNow() was last called.
 198:Middlewares/Third_Party/FreeRTOS/Source/timers.c ****  */
 199:Middlewares/Third_Party/FreeRTOS/Source/timers.c **** static TickType_t prvSampleTimeNow( BaseType_t * const pxTimerListsWereSwitched ) PRIVILEGED_FUNCTI
 200:Middlewares/Third_Party/FreeRTOS/Source/timers.c **** 
 201:Middlewares/Third_Party/FreeRTOS/Source/timers.c **** /*
 202:Middlewares/Third_Party/FreeRTOS/Source/timers.c ****  * If the timer list contains any active timers then return the expire time of
ARM GAS  /tmp/ccApgZAB.s 			page 5


 203:Middlewares/Third_Party/FreeRTOS/Source/timers.c ****  * the timer that will expire first and set *pxListWasEmpty to false.  If the
 204:Middlewares/Third_Party/FreeRTOS/Source/timers.c ****  * timer list does not contain any timers then return 0 and set *pxListWasEmpty
 205:Middlewares/Third_Party/FreeRTOS/Source/timers.c ****  * to pdTRUE.
 206:Middlewares/Third_Party/FreeRTOS/Source/timers.c ****  */
 207:Middlewares/Third_Party/FreeRTOS/Source/timers.c **** static TickType_t prvGetNextExpireTime( BaseType_t * const pxListWasEmpty ) PRIVILEGED_FUNCTION;
 208:Middlewares/Third_Party/FreeRTOS/Source/timers.c **** 
 209:Middlewares/Third_Party/FreeRTOS/Source/timers.c **** /*
 210:Middlewares/Third_Party/FreeRTOS/Source/timers.c ****  * If a timer has expired, process it.  Otherwise, block the timer service task
 211:Middlewares/Third_Party/FreeRTOS/Source/timers.c ****  * until either a timer does expire or a command is received.
 212:Middlewares/Third_Party/FreeRTOS/Source/timers.c ****  */
 213:Middlewares/Third_Party/FreeRTOS/Source/timers.c **** static void prvProcessTimerOrBlockTask( const TickType_t xNextExpireTime, BaseType_t xListWasEmpty 
 214:Middlewares/Third_Party/FreeRTOS/Source/timers.c **** 
 215:Middlewares/Third_Party/FreeRTOS/Source/timers.c **** /*
 216:Middlewares/Third_Party/FreeRTOS/Source/timers.c ****  * Called after a Timer_t structure has been allocated either statically or
 217:Middlewares/Third_Party/FreeRTOS/Source/timers.c ****  * dynamically to fill in the structure's members.
 218:Middlewares/Third_Party/FreeRTOS/Source/timers.c ****  */
 219:Middlewares/Third_Party/FreeRTOS/Source/timers.c **** static void prvInitialiseNewTimer(	const char * const pcTimerName,			/*lint !e971 Unqualified char 
 220:Middlewares/Third_Party/FreeRTOS/Source/timers.c **** 									const TickType_t xTimerPeriodInTicks,
 221:Middlewares/Third_Party/FreeRTOS/Source/timers.c **** 									const UBaseType_t uxAutoReload,
 222:Middlewares/Third_Party/FreeRTOS/Source/timers.c **** 									void * const pvTimerID,
 223:Middlewares/Third_Party/FreeRTOS/Source/timers.c **** 									TimerCallbackFunction_t pxCallbackFunction,
 224:Middlewares/Third_Party/FreeRTOS/Source/timers.c **** 									Timer_t *pxNewTimer ) PRIVILEGED_FUNCTION;
 225:Middlewares/Third_Party/FreeRTOS/Source/timers.c **** /*-----------------------------------------------------------*/
 226:Middlewares/Third_Party/FreeRTOS/Source/timers.c **** 
 227:Middlewares/Third_Party/FreeRTOS/Source/timers.c **** BaseType_t xTimerCreateTimerTask( void )
 228:Middlewares/Third_Party/FreeRTOS/Source/timers.c **** {
 229:Middlewares/Third_Party/FreeRTOS/Source/timers.c **** BaseType_t xReturn = pdFAIL;
 230:Middlewares/Third_Party/FreeRTOS/Source/timers.c **** 
 231:Middlewares/Third_Party/FreeRTOS/Source/timers.c **** 	/* This function is called when the scheduler is started if
 232:Middlewares/Third_Party/FreeRTOS/Source/timers.c **** 	configUSE_TIMERS is set to 1.  Check that the infrastructure used by the
 233:Middlewares/Third_Party/FreeRTOS/Source/timers.c **** 	timer service task has been created/initialised.  If timers have already
 234:Middlewares/Third_Party/FreeRTOS/Source/timers.c **** 	been created then the initialisation will already have been performed. */
 235:Middlewares/Third_Party/FreeRTOS/Source/timers.c **** 	prvCheckForValidListAndQueue();
 236:Middlewares/Third_Party/FreeRTOS/Source/timers.c **** 
 237:Middlewares/Third_Party/FreeRTOS/Source/timers.c **** 	if( xTimerQueue != NULL )
 238:Middlewares/Third_Party/FreeRTOS/Source/timers.c **** 	{
 239:Middlewares/Third_Party/FreeRTOS/Source/timers.c **** 		#if( configSUPPORT_STATIC_ALLOCATION == 1 )
 240:Middlewares/Third_Party/FreeRTOS/Source/timers.c **** 		{
 241:Middlewares/Third_Party/FreeRTOS/Source/timers.c **** 			StaticTask_t *pxTimerTaskTCBBuffer = NULL;
 242:Middlewares/Third_Party/FreeRTOS/Source/timers.c **** 			StackType_t *pxTimerTaskStackBuffer = NULL;
 243:Middlewares/Third_Party/FreeRTOS/Source/timers.c **** 			uint32_t ulTimerTaskStackSize;
 244:Middlewares/Third_Party/FreeRTOS/Source/timers.c **** 
 245:Middlewares/Third_Party/FreeRTOS/Source/timers.c **** 			vApplicationGetTimerTaskMemory( &pxTimerTaskTCBBuffer, &pxTimerTaskStackBuffer, &ulTimerTaskStac
 246:Middlewares/Third_Party/FreeRTOS/Source/timers.c **** 			xTimerTaskHandle = xTaskCreateStatic(	prvTimerTask,
 247:Middlewares/Third_Party/FreeRTOS/Source/timers.c **** 													configTIMER_SERVICE_TASK_NAME,
 248:Middlewares/Third_Party/FreeRTOS/Source/timers.c **** 													ulTimerTaskStackSize,
 249:Middlewares/Third_Party/FreeRTOS/Source/timers.c **** 													NULL,
 250:Middlewares/Third_Party/FreeRTOS/Source/timers.c **** 													( ( UBaseType_t ) configTIMER_TASK_PRIORITY ) | portPRIVILEGE_BIT,
 251:Middlewares/Third_Party/FreeRTOS/Source/timers.c **** 													pxTimerTaskStackBuffer,
 252:Middlewares/Third_Party/FreeRTOS/Source/timers.c **** 													pxTimerTaskTCBBuffer );
 253:Middlewares/Third_Party/FreeRTOS/Source/timers.c **** 
 254:Middlewares/Third_Party/FreeRTOS/Source/timers.c **** 			if( xTimerTaskHandle != NULL )
 255:Middlewares/Third_Party/FreeRTOS/Source/timers.c **** 			{
 256:Middlewares/Third_Party/FreeRTOS/Source/timers.c **** 				xReturn = pdPASS;
 257:Middlewares/Third_Party/FreeRTOS/Source/timers.c **** 			}
 258:Middlewares/Third_Party/FreeRTOS/Source/timers.c **** 		}
 259:Middlewares/Third_Party/FreeRTOS/Source/timers.c **** 		#else
ARM GAS  /tmp/ccApgZAB.s 			page 6


 260:Middlewares/Third_Party/FreeRTOS/Source/timers.c **** 		{
 261:Middlewares/Third_Party/FreeRTOS/Source/timers.c **** 			xReturn = xTaskCreate(	prvTimerTask,
 262:Middlewares/Third_Party/FreeRTOS/Source/timers.c **** 									configTIMER_SERVICE_TASK_NAME,
 263:Middlewares/Third_Party/FreeRTOS/Source/timers.c **** 									configTIMER_TASK_STACK_DEPTH,
 264:Middlewares/Third_Party/FreeRTOS/Source/timers.c **** 									NULL,
 265:Middlewares/Third_Party/FreeRTOS/Source/timers.c **** 									( ( UBaseType_t ) configTIMER_TASK_PRIORITY ) | portPRIVILEGE_BIT,
 266:Middlewares/Third_Party/FreeRTOS/Source/timers.c **** 									&xTimerTaskHandle );
 267:Middlewares/Third_Party/FreeRTOS/Source/timers.c **** 		}
 268:Middlewares/Third_Party/FreeRTOS/Source/timers.c **** 		#endif /* configSUPPORT_STATIC_ALLOCATION */
 269:Middlewares/Third_Party/FreeRTOS/Source/timers.c **** 	}
 270:Middlewares/Third_Party/FreeRTOS/Source/timers.c **** 	else
 271:Middlewares/Third_Party/FreeRTOS/Source/timers.c **** 	{
 272:Middlewares/Third_Party/FreeRTOS/Source/timers.c **** 		mtCOVERAGE_TEST_MARKER();
 273:Middlewares/Third_Party/FreeRTOS/Source/timers.c **** 	}
 274:Middlewares/Third_Party/FreeRTOS/Source/timers.c **** 
 275:Middlewares/Third_Party/FreeRTOS/Source/timers.c **** 	configASSERT( xReturn );
 276:Middlewares/Third_Party/FreeRTOS/Source/timers.c **** 	return xReturn;
 277:Middlewares/Third_Party/FreeRTOS/Source/timers.c **** }
 278:Middlewares/Third_Party/FreeRTOS/Source/timers.c **** /*-----------------------------------------------------------*/
 279:Middlewares/Third_Party/FreeRTOS/Source/timers.c **** 
 280:Middlewares/Third_Party/FreeRTOS/Source/timers.c **** #if( configSUPPORT_DYNAMIC_ALLOCATION == 1 )
 281:Middlewares/Third_Party/FreeRTOS/Source/timers.c **** 
 282:Middlewares/Third_Party/FreeRTOS/Source/timers.c **** 	TimerHandle_t xTimerCreate(	const char * const pcTimerName,			/*lint !e971 Unqualified char types 
 283:Middlewares/Third_Party/FreeRTOS/Source/timers.c **** 								const TickType_t xTimerPeriodInTicks,
 284:Middlewares/Third_Party/FreeRTOS/Source/timers.c **** 								const UBaseType_t uxAutoReload,
 285:Middlewares/Third_Party/FreeRTOS/Source/timers.c **** 								void * const pvTimerID,
 286:Middlewares/Third_Party/FreeRTOS/Source/timers.c **** 								TimerCallbackFunction_t pxCallbackFunction )
 287:Middlewares/Third_Party/FreeRTOS/Source/timers.c **** 	{
 288:Middlewares/Third_Party/FreeRTOS/Source/timers.c **** 	Timer_t *pxNewTimer;
 289:Middlewares/Third_Party/FreeRTOS/Source/timers.c **** 
 290:Middlewares/Third_Party/FreeRTOS/Source/timers.c **** 		pxNewTimer = ( Timer_t * ) pvPortMalloc( sizeof( Timer_t ) ); /*lint !e9087 !e9079 All values ret
 291:Middlewares/Third_Party/FreeRTOS/Source/timers.c **** 
 292:Middlewares/Third_Party/FreeRTOS/Source/timers.c **** 		if( pxNewTimer != NULL )
 293:Middlewares/Third_Party/FreeRTOS/Source/timers.c **** 		{
 294:Middlewares/Third_Party/FreeRTOS/Source/timers.c **** 			/* Status is thus far zero as the timer is not created statically
 295:Middlewares/Third_Party/FreeRTOS/Source/timers.c **** 			and has not been started.  The auto-reload bit may get set in
 296:Middlewares/Third_Party/FreeRTOS/Source/timers.c **** 			prvInitialiseNewTimer. */
 297:Middlewares/Third_Party/FreeRTOS/Source/timers.c **** 			pxNewTimer->ucStatus = 0x00;
 298:Middlewares/Third_Party/FreeRTOS/Source/timers.c **** 			prvInitialiseNewTimer( pcTimerName, xTimerPeriodInTicks, uxAutoReload, pvTimerID, pxCallbackFunc
 299:Middlewares/Third_Party/FreeRTOS/Source/timers.c **** 		}
 300:Middlewares/Third_Party/FreeRTOS/Source/timers.c **** 
 301:Middlewares/Third_Party/FreeRTOS/Source/timers.c **** 		return pxNewTimer;
 302:Middlewares/Third_Party/FreeRTOS/Source/timers.c **** 	}
 303:Middlewares/Third_Party/FreeRTOS/Source/timers.c **** 
 304:Middlewares/Third_Party/FreeRTOS/Source/timers.c **** #endif /* configSUPPORT_DYNAMIC_ALLOCATION */
 305:Middlewares/Third_Party/FreeRTOS/Source/timers.c **** /*-----------------------------------------------------------*/
 306:Middlewares/Third_Party/FreeRTOS/Source/timers.c **** 
 307:Middlewares/Third_Party/FreeRTOS/Source/timers.c **** #if( configSUPPORT_STATIC_ALLOCATION == 1 )
 308:Middlewares/Third_Party/FreeRTOS/Source/timers.c **** 
 309:Middlewares/Third_Party/FreeRTOS/Source/timers.c **** 	TimerHandle_t xTimerCreateStatic(	const char * const pcTimerName,		/*lint !e971 Unqualified char t
 310:Middlewares/Third_Party/FreeRTOS/Source/timers.c **** 										const TickType_t xTimerPeriodInTicks,
 311:Middlewares/Third_Party/FreeRTOS/Source/timers.c **** 										const UBaseType_t uxAutoReload,
 312:Middlewares/Third_Party/FreeRTOS/Source/timers.c **** 										void * const pvTimerID,
 313:Middlewares/Third_Party/FreeRTOS/Source/timers.c **** 										TimerCallbackFunction_t pxCallbackFunction,
 314:Middlewares/Third_Party/FreeRTOS/Source/timers.c **** 										StaticTimer_t *pxTimerBuffer )
 315:Middlewares/Third_Party/FreeRTOS/Source/timers.c **** 	{
 316:Middlewares/Third_Party/FreeRTOS/Source/timers.c **** 	Timer_t *pxNewTimer;
ARM GAS  /tmp/ccApgZAB.s 			page 7


 317:Middlewares/Third_Party/FreeRTOS/Source/timers.c **** 
 318:Middlewares/Third_Party/FreeRTOS/Source/timers.c **** 		#if( configASSERT_DEFINED == 1 )
 319:Middlewares/Third_Party/FreeRTOS/Source/timers.c **** 		{
 320:Middlewares/Third_Party/FreeRTOS/Source/timers.c **** 			/* Sanity check that the size of the structure used to declare a
 321:Middlewares/Third_Party/FreeRTOS/Source/timers.c **** 			variable of type StaticTimer_t equals the size of the real timer
 322:Middlewares/Third_Party/FreeRTOS/Source/timers.c **** 			structure. */
 323:Middlewares/Third_Party/FreeRTOS/Source/timers.c **** 			volatile size_t xSize = sizeof( StaticTimer_t );
 324:Middlewares/Third_Party/FreeRTOS/Source/timers.c **** 			configASSERT( xSize == sizeof( Timer_t ) );
 325:Middlewares/Third_Party/FreeRTOS/Source/timers.c **** 			( void ) xSize; /* Keeps lint quiet when configASSERT() is not defined. */
 326:Middlewares/Third_Party/FreeRTOS/Source/timers.c **** 		}
 327:Middlewares/Third_Party/FreeRTOS/Source/timers.c **** 		#endif /* configASSERT_DEFINED */
 328:Middlewares/Third_Party/FreeRTOS/Source/timers.c **** 
 329:Middlewares/Third_Party/FreeRTOS/Source/timers.c **** 		/* A pointer to a StaticTimer_t structure MUST be provided, use it. */
 330:Middlewares/Third_Party/FreeRTOS/Source/timers.c **** 		configASSERT( pxTimerBuffer );
 331:Middlewares/Third_Party/FreeRTOS/Source/timers.c **** 		pxNewTimer = ( Timer_t * ) pxTimerBuffer; /*lint !e740 !e9087 StaticTimer_t is a pointer to a Tim
 332:Middlewares/Third_Party/FreeRTOS/Source/timers.c **** 
 333:Middlewares/Third_Party/FreeRTOS/Source/timers.c **** 		if( pxNewTimer != NULL )
 334:Middlewares/Third_Party/FreeRTOS/Source/timers.c **** 		{
 335:Middlewares/Third_Party/FreeRTOS/Source/timers.c **** 			/* Timers can be created statically or dynamically so note this
 336:Middlewares/Third_Party/FreeRTOS/Source/timers.c **** 			timer was created statically in case it is later deleted.  The
 337:Middlewares/Third_Party/FreeRTOS/Source/timers.c **** 			auto-reload bit may get set in prvInitialiseNewTimer(). */
 338:Middlewares/Third_Party/FreeRTOS/Source/timers.c **** 			pxNewTimer->ucStatus = tmrSTATUS_IS_STATICALLY_ALLOCATED;
 339:Middlewares/Third_Party/FreeRTOS/Source/timers.c **** 
 340:Middlewares/Third_Party/FreeRTOS/Source/timers.c **** 			prvInitialiseNewTimer( pcTimerName, xTimerPeriodInTicks, uxAutoReload, pvTimerID, pxCallbackFunc
 341:Middlewares/Third_Party/FreeRTOS/Source/timers.c **** 		}
 342:Middlewares/Third_Party/FreeRTOS/Source/timers.c **** 
 343:Middlewares/Third_Party/FreeRTOS/Source/timers.c **** 		return pxNewTimer;
 344:Middlewares/Third_Party/FreeRTOS/Source/timers.c **** 	}
 345:Middlewares/Third_Party/FreeRTOS/Source/timers.c **** 
 346:Middlewares/Third_Party/FreeRTOS/Source/timers.c **** #endif /* configSUPPORT_STATIC_ALLOCATION */
 347:Middlewares/Third_Party/FreeRTOS/Source/timers.c **** /*-----------------------------------------------------------*/
 348:Middlewares/Third_Party/FreeRTOS/Source/timers.c **** 
 349:Middlewares/Third_Party/FreeRTOS/Source/timers.c **** static void prvInitialiseNewTimer(	const char * const pcTimerName,			/*lint !e971 Unqualified char 
 350:Middlewares/Third_Party/FreeRTOS/Source/timers.c **** 									const TickType_t xTimerPeriodInTicks,
 351:Middlewares/Third_Party/FreeRTOS/Source/timers.c **** 									const UBaseType_t uxAutoReload,
 352:Middlewares/Third_Party/FreeRTOS/Source/timers.c **** 									void * const pvTimerID,
 353:Middlewares/Third_Party/FreeRTOS/Source/timers.c **** 									TimerCallbackFunction_t pxCallbackFunction,
 354:Middlewares/Third_Party/FreeRTOS/Source/timers.c **** 									Timer_t *pxNewTimer )
 355:Middlewares/Third_Party/FreeRTOS/Source/timers.c **** {
 356:Middlewares/Third_Party/FreeRTOS/Source/timers.c **** 	/* 0 is not a valid value for xTimerPeriodInTicks. */
 357:Middlewares/Third_Party/FreeRTOS/Source/timers.c **** 	configASSERT( ( xTimerPeriodInTicks > 0 ) );
 358:Middlewares/Third_Party/FreeRTOS/Source/timers.c **** 
 359:Middlewares/Third_Party/FreeRTOS/Source/timers.c **** 	if( pxNewTimer != NULL )
 360:Middlewares/Third_Party/FreeRTOS/Source/timers.c **** 	{
 361:Middlewares/Third_Party/FreeRTOS/Source/timers.c **** 		/* Ensure the infrastructure used by the timer service task has been
 362:Middlewares/Third_Party/FreeRTOS/Source/timers.c **** 		created/initialised. */
 363:Middlewares/Third_Party/FreeRTOS/Source/timers.c **** 		prvCheckForValidListAndQueue();
 364:Middlewares/Third_Party/FreeRTOS/Source/timers.c **** 
 365:Middlewares/Third_Party/FreeRTOS/Source/timers.c **** 		/* Initialise the timer structure members using the function
 366:Middlewares/Third_Party/FreeRTOS/Source/timers.c **** 		parameters. */
 367:Middlewares/Third_Party/FreeRTOS/Source/timers.c **** 		pxNewTimer->pcTimerName = pcTimerName;
 368:Middlewares/Third_Party/FreeRTOS/Source/timers.c **** 		pxNewTimer->xTimerPeriodInTicks = xTimerPeriodInTicks;
 369:Middlewares/Third_Party/FreeRTOS/Source/timers.c **** 		pxNewTimer->pvTimerID = pvTimerID;
 370:Middlewares/Third_Party/FreeRTOS/Source/timers.c **** 		pxNewTimer->pxCallbackFunction = pxCallbackFunction;
 371:Middlewares/Third_Party/FreeRTOS/Source/timers.c **** 		vListInitialiseItem( &( pxNewTimer->xTimerListItem ) );
 372:Middlewares/Third_Party/FreeRTOS/Source/timers.c **** 		if( uxAutoReload != pdFALSE )
 373:Middlewares/Third_Party/FreeRTOS/Source/timers.c **** 		{
ARM GAS  /tmp/ccApgZAB.s 			page 8


 374:Middlewares/Third_Party/FreeRTOS/Source/timers.c **** 			pxNewTimer->ucStatus |= tmrSTATUS_IS_AUTORELOAD;
 375:Middlewares/Third_Party/FreeRTOS/Source/timers.c **** 		}
 376:Middlewares/Third_Party/FreeRTOS/Source/timers.c **** 		traceTIMER_CREATE( pxNewTimer );
 377:Middlewares/Third_Party/FreeRTOS/Source/timers.c **** 	}
 378:Middlewares/Third_Party/FreeRTOS/Source/timers.c **** }
 379:Middlewares/Third_Party/FreeRTOS/Source/timers.c **** /*-----------------------------------------------------------*/
 380:Middlewares/Third_Party/FreeRTOS/Source/timers.c **** 
 381:Middlewares/Third_Party/FreeRTOS/Source/timers.c **** BaseType_t xTimerGenericCommand( TimerHandle_t xTimer, const BaseType_t xCommandID, const TickType_
 382:Middlewares/Third_Party/FreeRTOS/Source/timers.c **** {
 383:Middlewares/Third_Party/FreeRTOS/Source/timers.c **** BaseType_t xReturn = pdFAIL;
 384:Middlewares/Third_Party/FreeRTOS/Source/timers.c **** DaemonTaskMessage_t xMessage;
 385:Middlewares/Third_Party/FreeRTOS/Source/timers.c **** 
 386:Middlewares/Third_Party/FreeRTOS/Source/timers.c **** 	configASSERT( xTimer );
 387:Middlewares/Third_Party/FreeRTOS/Source/timers.c **** 
 388:Middlewares/Third_Party/FreeRTOS/Source/timers.c **** 	/* Send a message to the timer service task to perform a particular action
 389:Middlewares/Third_Party/FreeRTOS/Source/timers.c **** 	on a particular timer definition. */
 390:Middlewares/Third_Party/FreeRTOS/Source/timers.c **** 	if( xTimerQueue != NULL )
 391:Middlewares/Third_Party/FreeRTOS/Source/timers.c **** 	{
 392:Middlewares/Third_Party/FreeRTOS/Source/timers.c **** 		/* Send a command to the timer service task to start the xTimer timer. */
 393:Middlewares/Third_Party/FreeRTOS/Source/timers.c **** 		xMessage.xMessageID = xCommandID;
 394:Middlewares/Third_Party/FreeRTOS/Source/timers.c **** 		xMessage.u.xTimerParameters.xMessageValue = xOptionalValue;
 395:Middlewares/Third_Party/FreeRTOS/Source/timers.c **** 		xMessage.u.xTimerParameters.pxTimer = xTimer;
 396:Middlewares/Third_Party/FreeRTOS/Source/timers.c **** 
 397:Middlewares/Third_Party/FreeRTOS/Source/timers.c **** 		if( xCommandID < tmrFIRST_FROM_ISR_COMMAND )
 398:Middlewares/Third_Party/FreeRTOS/Source/timers.c **** 		{
 399:Middlewares/Third_Party/FreeRTOS/Source/timers.c **** 			if( xTaskGetSchedulerState() == taskSCHEDULER_RUNNING )
 400:Middlewares/Third_Party/FreeRTOS/Source/timers.c **** 			{
 401:Middlewares/Third_Party/FreeRTOS/Source/timers.c **** 				xReturn = xQueueSendToBack( xTimerQueue, &xMessage, xTicksToWait );
 402:Middlewares/Third_Party/FreeRTOS/Source/timers.c **** 			}
 403:Middlewares/Third_Party/FreeRTOS/Source/timers.c **** 			else
 404:Middlewares/Third_Party/FreeRTOS/Source/timers.c **** 			{
 405:Middlewares/Third_Party/FreeRTOS/Source/timers.c **** 				xReturn = xQueueSendToBack( xTimerQueue, &xMessage, tmrNO_DELAY );
 406:Middlewares/Third_Party/FreeRTOS/Source/timers.c **** 			}
 407:Middlewares/Third_Party/FreeRTOS/Source/timers.c **** 		}
 408:Middlewares/Third_Party/FreeRTOS/Source/timers.c **** 		else
 409:Middlewares/Third_Party/FreeRTOS/Source/timers.c **** 		{
 410:Middlewares/Third_Party/FreeRTOS/Source/timers.c **** 			xReturn = xQueueSendToBackFromISR( xTimerQueue, &xMessage, pxHigherPriorityTaskWoken );
 411:Middlewares/Third_Party/FreeRTOS/Source/timers.c **** 		}
 412:Middlewares/Third_Party/FreeRTOS/Source/timers.c **** 
 413:Middlewares/Third_Party/FreeRTOS/Source/timers.c **** 		traceTIMER_COMMAND_SEND( xTimer, xCommandID, xOptionalValue, xReturn );
 414:Middlewares/Third_Party/FreeRTOS/Source/timers.c **** 	}
 415:Middlewares/Third_Party/FreeRTOS/Source/timers.c **** 	else
 416:Middlewares/Third_Party/FreeRTOS/Source/timers.c **** 	{
 417:Middlewares/Third_Party/FreeRTOS/Source/timers.c **** 		mtCOVERAGE_TEST_MARKER();
 418:Middlewares/Third_Party/FreeRTOS/Source/timers.c **** 	}
 419:Middlewares/Third_Party/FreeRTOS/Source/timers.c **** 
 420:Middlewares/Third_Party/FreeRTOS/Source/timers.c **** 	return xReturn;
 421:Middlewares/Third_Party/FreeRTOS/Source/timers.c **** }
 422:Middlewares/Third_Party/FreeRTOS/Source/timers.c **** /*-----------------------------------------------------------*/
 423:Middlewares/Third_Party/FreeRTOS/Source/timers.c **** 
 424:Middlewares/Third_Party/FreeRTOS/Source/timers.c **** TaskHandle_t xTimerGetTimerDaemonTaskHandle( void )
 425:Middlewares/Third_Party/FreeRTOS/Source/timers.c **** {
 426:Middlewares/Third_Party/FreeRTOS/Source/timers.c **** 	/* If xTimerGetTimerDaemonTaskHandle() is called before the scheduler has been
 427:Middlewares/Third_Party/FreeRTOS/Source/timers.c **** 	started, then xTimerTaskHandle will be NULL. */
 428:Middlewares/Third_Party/FreeRTOS/Source/timers.c **** 	configASSERT( ( xTimerTaskHandle != NULL ) );
 429:Middlewares/Third_Party/FreeRTOS/Source/timers.c **** 	return xTimerTaskHandle;
 430:Middlewares/Third_Party/FreeRTOS/Source/timers.c **** }
ARM GAS  /tmp/ccApgZAB.s 			page 9


 431:Middlewares/Third_Party/FreeRTOS/Source/timers.c **** /*-----------------------------------------------------------*/
 432:Middlewares/Third_Party/FreeRTOS/Source/timers.c **** 
 433:Middlewares/Third_Party/FreeRTOS/Source/timers.c **** TickType_t xTimerGetPeriod( TimerHandle_t xTimer )
 434:Middlewares/Third_Party/FreeRTOS/Source/timers.c **** {
 435:Middlewares/Third_Party/FreeRTOS/Source/timers.c **** Timer_t *pxTimer = xTimer;
 436:Middlewares/Third_Party/FreeRTOS/Source/timers.c **** 
 437:Middlewares/Third_Party/FreeRTOS/Source/timers.c **** 	configASSERT( xTimer );
 438:Middlewares/Third_Party/FreeRTOS/Source/timers.c **** 	return pxTimer->xTimerPeriodInTicks;
 439:Middlewares/Third_Party/FreeRTOS/Source/timers.c **** }
 440:Middlewares/Third_Party/FreeRTOS/Source/timers.c **** /*-----------------------------------------------------------*/
 441:Middlewares/Third_Party/FreeRTOS/Source/timers.c **** 
 442:Middlewares/Third_Party/FreeRTOS/Source/timers.c **** void vTimerSetReloadMode( TimerHandle_t xTimer, const UBaseType_t uxAutoReload )
 443:Middlewares/Third_Party/FreeRTOS/Source/timers.c **** {
 444:Middlewares/Third_Party/FreeRTOS/Source/timers.c **** Timer_t * pxTimer =  xTimer;
 445:Middlewares/Third_Party/FreeRTOS/Source/timers.c **** 
 446:Middlewares/Third_Party/FreeRTOS/Source/timers.c **** 	configASSERT( xTimer );
 447:Middlewares/Third_Party/FreeRTOS/Source/timers.c **** 	taskENTER_CRITICAL();
 448:Middlewares/Third_Party/FreeRTOS/Source/timers.c **** 	{
 449:Middlewares/Third_Party/FreeRTOS/Source/timers.c **** 		if( uxAutoReload != pdFALSE )
 450:Middlewares/Third_Party/FreeRTOS/Source/timers.c **** 		{
 451:Middlewares/Third_Party/FreeRTOS/Source/timers.c **** 			pxTimer->ucStatus |= tmrSTATUS_IS_AUTORELOAD;
 452:Middlewares/Third_Party/FreeRTOS/Source/timers.c **** 		}
 453:Middlewares/Third_Party/FreeRTOS/Source/timers.c **** 		else
 454:Middlewares/Third_Party/FreeRTOS/Source/timers.c **** 		{
 455:Middlewares/Third_Party/FreeRTOS/Source/timers.c **** 			pxTimer->ucStatus &= ~tmrSTATUS_IS_AUTORELOAD;
 456:Middlewares/Third_Party/FreeRTOS/Source/timers.c **** 		}
 457:Middlewares/Third_Party/FreeRTOS/Source/timers.c **** 	}
 458:Middlewares/Third_Party/FreeRTOS/Source/timers.c **** 	taskEXIT_CRITICAL();
 459:Middlewares/Third_Party/FreeRTOS/Source/timers.c **** }
 460:Middlewares/Third_Party/FreeRTOS/Source/timers.c **** /*-----------------------------------------------------------*/
 461:Middlewares/Third_Party/FreeRTOS/Source/timers.c **** 
 462:Middlewares/Third_Party/FreeRTOS/Source/timers.c **** UBaseType_t uxTimerGetReloadMode( TimerHandle_t xTimer )
 463:Middlewares/Third_Party/FreeRTOS/Source/timers.c **** {
 464:Middlewares/Third_Party/FreeRTOS/Source/timers.c **** Timer_t * pxTimer =  xTimer;
 465:Middlewares/Third_Party/FreeRTOS/Source/timers.c **** UBaseType_t uxReturn;
 466:Middlewares/Third_Party/FreeRTOS/Source/timers.c **** 
 467:Middlewares/Third_Party/FreeRTOS/Source/timers.c **** 	configASSERT( xTimer );
 468:Middlewares/Third_Party/FreeRTOS/Source/timers.c **** 	taskENTER_CRITICAL();
 469:Middlewares/Third_Party/FreeRTOS/Source/timers.c **** 	{
 470:Middlewares/Third_Party/FreeRTOS/Source/timers.c **** 		if( ( pxTimer->ucStatus & tmrSTATUS_IS_AUTORELOAD ) == 0 )
 471:Middlewares/Third_Party/FreeRTOS/Source/timers.c **** 		{
 472:Middlewares/Third_Party/FreeRTOS/Source/timers.c **** 			/* Not an auto-reload timer. */
 473:Middlewares/Third_Party/FreeRTOS/Source/timers.c **** 			uxReturn = ( UBaseType_t ) pdFALSE;
 474:Middlewares/Third_Party/FreeRTOS/Source/timers.c **** 		}
 475:Middlewares/Third_Party/FreeRTOS/Source/timers.c **** 		else
 476:Middlewares/Third_Party/FreeRTOS/Source/timers.c **** 		{
 477:Middlewares/Third_Party/FreeRTOS/Source/timers.c **** 			/* Is an auto-reload timer. */
 478:Middlewares/Third_Party/FreeRTOS/Source/timers.c **** 			uxReturn = ( UBaseType_t ) pdTRUE;
 479:Middlewares/Third_Party/FreeRTOS/Source/timers.c **** 		}
 480:Middlewares/Third_Party/FreeRTOS/Source/timers.c **** 	}
 481:Middlewares/Third_Party/FreeRTOS/Source/timers.c **** 	taskEXIT_CRITICAL();
 482:Middlewares/Third_Party/FreeRTOS/Source/timers.c **** 
 483:Middlewares/Third_Party/FreeRTOS/Source/timers.c **** 	return uxReturn;
 484:Middlewares/Third_Party/FreeRTOS/Source/timers.c **** }
 485:Middlewares/Third_Party/FreeRTOS/Source/timers.c **** /*-----------------------------------------------------------*/
 486:Middlewares/Third_Party/FreeRTOS/Source/timers.c **** 
 487:Middlewares/Third_Party/FreeRTOS/Source/timers.c **** TickType_t xTimerGetExpiryTime( TimerHandle_t xTimer )
ARM GAS  /tmp/ccApgZAB.s 			page 10


 488:Middlewares/Third_Party/FreeRTOS/Source/timers.c **** {
 489:Middlewares/Third_Party/FreeRTOS/Source/timers.c **** Timer_t * pxTimer =  xTimer;
 490:Middlewares/Third_Party/FreeRTOS/Source/timers.c **** TickType_t xReturn;
 491:Middlewares/Third_Party/FreeRTOS/Source/timers.c **** 
 492:Middlewares/Third_Party/FreeRTOS/Source/timers.c **** 	configASSERT( xTimer );
 493:Middlewares/Third_Party/FreeRTOS/Source/timers.c **** 	xReturn = listGET_LIST_ITEM_VALUE( &( pxTimer->xTimerListItem ) );
 494:Middlewares/Third_Party/FreeRTOS/Source/timers.c **** 	return xReturn;
 495:Middlewares/Third_Party/FreeRTOS/Source/timers.c **** }
 496:Middlewares/Third_Party/FreeRTOS/Source/timers.c **** /*-----------------------------------------------------------*/
 497:Middlewares/Third_Party/FreeRTOS/Source/timers.c **** 
 498:Middlewares/Third_Party/FreeRTOS/Source/timers.c **** const char * pcTimerGetName( TimerHandle_t xTimer ) /*lint !e971 Unqualified char types are allowed
 499:Middlewares/Third_Party/FreeRTOS/Source/timers.c **** {
 500:Middlewares/Third_Party/FreeRTOS/Source/timers.c **** Timer_t *pxTimer = xTimer;
 501:Middlewares/Third_Party/FreeRTOS/Source/timers.c **** 
 502:Middlewares/Third_Party/FreeRTOS/Source/timers.c **** 	configASSERT( xTimer );
 503:Middlewares/Third_Party/FreeRTOS/Source/timers.c **** 	return pxTimer->pcTimerName;
 504:Middlewares/Third_Party/FreeRTOS/Source/timers.c **** }
 505:Middlewares/Third_Party/FreeRTOS/Source/timers.c **** /*-----------------------------------------------------------*/
 506:Middlewares/Third_Party/FreeRTOS/Source/timers.c **** 
 507:Middlewares/Third_Party/FreeRTOS/Source/timers.c **** static void prvProcessExpiredTimer( const TickType_t xNextExpireTime, const TickType_t xTimeNow )
 508:Middlewares/Third_Party/FreeRTOS/Source/timers.c **** {
 509:Middlewares/Third_Party/FreeRTOS/Source/timers.c **** BaseType_t xResult;
 510:Middlewares/Third_Party/FreeRTOS/Source/timers.c **** Timer_t * const pxTimer = ( Timer_t * ) listGET_OWNER_OF_HEAD_ENTRY( pxCurrentTimerList ); /*lint !
 511:Middlewares/Third_Party/FreeRTOS/Source/timers.c **** 
 512:Middlewares/Third_Party/FreeRTOS/Source/timers.c **** 	/* Remove the timer from the list of active timers.  A check has already
 513:Middlewares/Third_Party/FreeRTOS/Source/timers.c **** 	been performed to ensure the list is not empty. */
 514:Middlewares/Third_Party/FreeRTOS/Source/timers.c **** 	( void ) uxListRemove( &( pxTimer->xTimerListItem ) );
 515:Middlewares/Third_Party/FreeRTOS/Source/timers.c **** 	traceTIMER_EXPIRED( pxTimer );
 516:Middlewares/Third_Party/FreeRTOS/Source/timers.c **** 
 517:Middlewares/Third_Party/FreeRTOS/Source/timers.c **** 	/* If the timer is an auto-reload timer then calculate the next
 518:Middlewares/Third_Party/FreeRTOS/Source/timers.c **** 	expiry time and re-insert the timer in the list of active timers. */
 519:Middlewares/Third_Party/FreeRTOS/Source/timers.c **** 	if( ( pxTimer->ucStatus & tmrSTATUS_IS_AUTORELOAD ) != 0 )
 520:Middlewares/Third_Party/FreeRTOS/Source/timers.c **** 	{
 521:Middlewares/Third_Party/FreeRTOS/Source/timers.c **** 		/* The timer is inserted into a list using a time relative to anything
 522:Middlewares/Third_Party/FreeRTOS/Source/timers.c **** 		other than the current time.  It will therefore be inserted into the
 523:Middlewares/Third_Party/FreeRTOS/Source/timers.c **** 		correct list relative to the time this task thinks it is now. */
 524:Middlewares/Third_Party/FreeRTOS/Source/timers.c **** 		if( prvInsertTimerInActiveList( pxTimer, ( xNextExpireTime + pxTimer->xTimerPeriodInTicks ), xTim
 525:Middlewares/Third_Party/FreeRTOS/Source/timers.c **** 		{
 526:Middlewares/Third_Party/FreeRTOS/Source/timers.c **** 			/* The timer expired before it was added to the active timer
 527:Middlewares/Third_Party/FreeRTOS/Source/timers.c **** 			list.  Reload it now.  */
 528:Middlewares/Third_Party/FreeRTOS/Source/timers.c **** 			xResult = xTimerGenericCommand( pxTimer, tmrCOMMAND_START_DONT_TRACE, xNextExpireTime, NULL, tmr
 529:Middlewares/Third_Party/FreeRTOS/Source/timers.c **** 			configASSERT( xResult );
 530:Middlewares/Third_Party/FreeRTOS/Source/timers.c **** 			( void ) xResult;
 531:Middlewares/Third_Party/FreeRTOS/Source/timers.c **** 		}
 532:Middlewares/Third_Party/FreeRTOS/Source/timers.c **** 		else
 533:Middlewares/Third_Party/FreeRTOS/Source/timers.c **** 		{
 534:Middlewares/Third_Party/FreeRTOS/Source/timers.c **** 			mtCOVERAGE_TEST_MARKER();
 535:Middlewares/Third_Party/FreeRTOS/Source/timers.c **** 		}
 536:Middlewares/Third_Party/FreeRTOS/Source/timers.c **** 	}
 537:Middlewares/Third_Party/FreeRTOS/Source/timers.c **** 	else
 538:Middlewares/Third_Party/FreeRTOS/Source/timers.c **** 	{
 539:Middlewares/Third_Party/FreeRTOS/Source/timers.c **** 		pxTimer->ucStatus &= ~tmrSTATUS_IS_ACTIVE;
 540:Middlewares/Third_Party/FreeRTOS/Source/timers.c **** 		mtCOVERAGE_TEST_MARKER();
 541:Middlewares/Third_Party/FreeRTOS/Source/timers.c **** 	}
 542:Middlewares/Third_Party/FreeRTOS/Source/timers.c **** 
 543:Middlewares/Third_Party/FreeRTOS/Source/timers.c **** 	/* Call the timer callback. */
 544:Middlewares/Third_Party/FreeRTOS/Source/timers.c **** 	pxTimer->pxCallbackFunction( ( TimerHandle_t ) pxTimer );
ARM GAS  /tmp/ccApgZAB.s 			page 11


 545:Middlewares/Third_Party/FreeRTOS/Source/timers.c **** }
 546:Middlewares/Third_Party/FreeRTOS/Source/timers.c **** /*-----------------------------------------------------------*/
 547:Middlewares/Third_Party/FreeRTOS/Source/timers.c **** 
 548:Middlewares/Third_Party/FreeRTOS/Source/timers.c **** static portTASK_FUNCTION( prvTimerTask, pvParameters )
 549:Middlewares/Third_Party/FreeRTOS/Source/timers.c **** {
 550:Middlewares/Third_Party/FreeRTOS/Source/timers.c **** TickType_t xNextExpireTime;
 551:Middlewares/Third_Party/FreeRTOS/Source/timers.c **** BaseType_t xListWasEmpty;
 552:Middlewares/Third_Party/FreeRTOS/Source/timers.c **** 
 553:Middlewares/Third_Party/FreeRTOS/Source/timers.c **** 	/* Just to avoid compiler warnings. */
 554:Middlewares/Third_Party/FreeRTOS/Source/timers.c **** 	( void ) pvParameters;
 555:Middlewares/Third_Party/FreeRTOS/Source/timers.c **** 
 556:Middlewares/Third_Party/FreeRTOS/Source/timers.c **** 	#if( configUSE_DAEMON_TASK_STARTUP_HOOK == 1 )
 557:Middlewares/Third_Party/FreeRTOS/Source/timers.c **** 	{
 558:Middlewares/Third_Party/FreeRTOS/Source/timers.c **** 		extern void vApplicationDaemonTaskStartupHook( void );
 559:Middlewares/Third_Party/FreeRTOS/Source/timers.c **** 
 560:Middlewares/Third_Party/FreeRTOS/Source/timers.c **** 		/* Allow the application writer to execute some code in the context of
 561:Middlewares/Third_Party/FreeRTOS/Source/timers.c **** 		this task at the point the task starts executing.  This is useful if the
 562:Middlewares/Third_Party/FreeRTOS/Source/timers.c **** 		application includes initialisation code that would benefit from
 563:Middlewares/Third_Party/FreeRTOS/Source/timers.c **** 		executing after the scheduler has been started. */
 564:Middlewares/Third_Party/FreeRTOS/Source/timers.c **** 		vApplicationDaemonTaskStartupHook();
 565:Middlewares/Third_Party/FreeRTOS/Source/timers.c **** 	}
 566:Middlewares/Third_Party/FreeRTOS/Source/timers.c **** 	#endif /* configUSE_DAEMON_TASK_STARTUP_HOOK */
 567:Middlewares/Third_Party/FreeRTOS/Source/timers.c **** 
 568:Middlewares/Third_Party/FreeRTOS/Source/timers.c **** 	for( ;; )
 569:Middlewares/Third_Party/FreeRTOS/Source/timers.c **** 	{
 570:Middlewares/Third_Party/FreeRTOS/Source/timers.c **** 		/* Query the timers list to see if it contains any timers, and if so,
 571:Middlewares/Third_Party/FreeRTOS/Source/timers.c **** 		obtain the time at which the next timer will expire. */
 572:Middlewares/Third_Party/FreeRTOS/Source/timers.c **** 		xNextExpireTime = prvGetNextExpireTime( &xListWasEmpty );
 573:Middlewares/Third_Party/FreeRTOS/Source/timers.c **** 
 574:Middlewares/Third_Party/FreeRTOS/Source/timers.c **** 		/* If a timer has expired, process it.  Otherwise, block this task
 575:Middlewares/Third_Party/FreeRTOS/Source/timers.c **** 		until either a timer does expire, or a command is received. */
 576:Middlewares/Third_Party/FreeRTOS/Source/timers.c **** 		prvProcessTimerOrBlockTask( xNextExpireTime, xListWasEmpty );
 577:Middlewares/Third_Party/FreeRTOS/Source/timers.c **** 
 578:Middlewares/Third_Party/FreeRTOS/Source/timers.c **** 		/* Empty the command queue. */
 579:Middlewares/Third_Party/FreeRTOS/Source/timers.c **** 		prvProcessReceivedCommands();
 580:Middlewares/Third_Party/FreeRTOS/Source/timers.c **** 	}
 581:Middlewares/Third_Party/FreeRTOS/Source/timers.c **** }
 582:Middlewares/Third_Party/FreeRTOS/Source/timers.c **** /*-----------------------------------------------------------*/
 583:Middlewares/Third_Party/FreeRTOS/Source/timers.c **** 
 584:Middlewares/Third_Party/FreeRTOS/Source/timers.c **** static void prvProcessTimerOrBlockTask( const TickType_t xNextExpireTime, BaseType_t xListWasEmpty 
 585:Middlewares/Third_Party/FreeRTOS/Source/timers.c **** {
 586:Middlewares/Third_Party/FreeRTOS/Source/timers.c **** TickType_t xTimeNow;
 587:Middlewares/Third_Party/FreeRTOS/Source/timers.c **** BaseType_t xTimerListsWereSwitched;
 588:Middlewares/Third_Party/FreeRTOS/Source/timers.c **** 
 589:Middlewares/Third_Party/FreeRTOS/Source/timers.c **** 	vTaskSuspendAll();
 590:Middlewares/Third_Party/FreeRTOS/Source/timers.c **** 	{
 591:Middlewares/Third_Party/FreeRTOS/Source/timers.c **** 		/* Obtain the time now to make an assessment as to whether the timer
 592:Middlewares/Third_Party/FreeRTOS/Source/timers.c **** 		has expired or not.  If obtaining the time causes the lists to switch
 593:Middlewares/Third_Party/FreeRTOS/Source/timers.c **** 		then don't process this timer as any timers that remained in the list
 594:Middlewares/Third_Party/FreeRTOS/Source/timers.c **** 		when the lists were switched will have been processed within the
 595:Middlewares/Third_Party/FreeRTOS/Source/timers.c **** 		prvSampleTimeNow() function. */
 596:Middlewares/Third_Party/FreeRTOS/Source/timers.c **** 		xTimeNow = prvSampleTimeNow( &xTimerListsWereSwitched );
 597:Middlewares/Third_Party/FreeRTOS/Source/timers.c **** 		if( xTimerListsWereSwitched == pdFALSE )
 598:Middlewares/Third_Party/FreeRTOS/Source/timers.c **** 		{
 599:Middlewares/Third_Party/FreeRTOS/Source/timers.c **** 			/* The tick count has not overflowed, has the timer expired? */
 600:Middlewares/Third_Party/FreeRTOS/Source/timers.c **** 			if( ( xListWasEmpty == pdFALSE ) && ( xNextExpireTime <= xTimeNow ) )
 601:Middlewares/Third_Party/FreeRTOS/Source/timers.c **** 			{
ARM GAS  /tmp/ccApgZAB.s 			page 12


 602:Middlewares/Third_Party/FreeRTOS/Source/timers.c **** 				( void ) xTaskResumeAll();
 603:Middlewares/Third_Party/FreeRTOS/Source/timers.c **** 				prvProcessExpiredTimer( xNextExpireTime, xTimeNow );
 604:Middlewares/Third_Party/FreeRTOS/Source/timers.c **** 			}
 605:Middlewares/Third_Party/FreeRTOS/Source/timers.c **** 			else
 606:Middlewares/Third_Party/FreeRTOS/Source/timers.c **** 			{
 607:Middlewares/Third_Party/FreeRTOS/Source/timers.c **** 				/* The tick count has not overflowed, and the next expire
 608:Middlewares/Third_Party/FreeRTOS/Source/timers.c **** 				time has not been reached yet.  This task should therefore
 609:Middlewares/Third_Party/FreeRTOS/Source/timers.c **** 				block to wait for the next expire time or a command to be
 610:Middlewares/Third_Party/FreeRTOS/Source/timers.c **** 				received - whichever comes first.  The following line cannot
 611:Middlewares/Third_Party/FreeRTOS/Source/timers.c **** 				be reached unless xNextExpireTime > xTimeNow, except in the
 612:Middlewares/Third_Party/FreeRTOS/Source/timers.c **** 				case when the current timer list is empty. */
 613:Middlewares/Third_Party/FreeRTOS/Source/timers.c **** 				if( xListWasEmpty != pdFALSE )
 614:Middlewares/Third_Party/FreeRTOS/Source/timers.c **** 				{
 615:Middlewares/Third_Party/FreeRTOS/Source/timers.c **** 					/* The current timer list is empty - is the overflow list
 616:Middlewares/Third_Party/FreeRTOS/Source/timers.c **** 					also empty? */
 617:Middlewares/Third_Party/FreeRTOS/Source/timers.c **** 					xListWasEmpty = listLIST_IS_EMPTY( pxOverflowTimerList );
 618:Middlewares/Third_Party/FreeRTOS/Source/timers.c **** 				}
 619:Middlewares/Third_Party/FreeRTOS/Source/timers.c **** 
 620:Middlewares/Third_Party/FreeRTOS/Source/timers.c **** 				vQueueWaitForMessageRestricted( xTimerQueue, ( xNextExpireTime - xTimeNow ), xListWasEmpty );
 621:Middlewares/Third_Party/FreeRTOS/Source/timers.c **** 
 622:Middlewares/Third_Party/FreeRTOS/Source/timers.c **** 				if( xTaskResumeAll() == pdFALSE )
 623:Middlewares/Third_Party/FreeRTOS/Source/timers.c **** 				{
 624:Middlewares/Third_Party/FreeRTOS/Source/timers.c **** 					/* Yield to wait for either a command to arrive, or the
 625:Middlewares/Third_Party/FreeRTOS/Source/timers.c **** 					block time to expire.  If a command arrived between the
 626:Middlewares/Third_Party/FreeRTOS/Source/timers.c **** 					critical section being exited and this yield then the yield
 627:Middlewares/Third_Party/FreeRTOS/Source/timers.c **** 					will not cause the task to block. */
 628:Middlewares/Third_Party/FreeRTOS/Source/timers.c **** 					portYIELD_WITHIN_API();
 629:Middlewares/Third_Party/FreeRTOS/Source/timers.c **** 				}
 630:Middlewares/Third_Party/FreeRTOS/Source/timers.c **** 				else
 631:Middlewares/Third_Party/FreeRTOS/Source/timers.c **** 				{
 632:Middlewares/Third_Party/FreeRTOS/Source/timers.c **** 					mtCOVERAGE_TEST_MARKER();
 633:Middlewares/Third_Party/FreeRTOS/Source/timers.c **** 				}
 634:Middlewares/Third_Party/FreeRTOS/Source/timers.c **** 			}
 635:Middlewares/Third_Party/FreeRTOS/Source/timers.c **** 		}
 636:Middlewares/Third_Party/FreeRTOS/Source/timers.c **** 		else
 637:Middlewares/Third_Party/FreeRTOS/Source/timers.c **** 		{
 638:Middlewares/Third_Party/FreeRTOS/Source/timers.c **** 			( void ) xTaskResumeAll();
 639:Middlewares/Third_Party/FreeRTOS/Source/timers.c **** 		}
 640:Middlewares/Third_Party/FreeRTOS/Source/timers.c **** 	}
 641:Middlewares/Third_Party/FreeRTOS/Source/timers.c **** }
 642:Middlewares/Third_Party/FreeRTOS/Source/timers.c **** /*-----------------------------------------------------------*/
 643:Middlewares/Third_Party/FreeRTOS/Source/timers.c **** 
 644:Middlewares/Third_Party/FreeRTOS/Source/timers.c **** static TickType_t prvGetNextExpireTime( BaseType_t * const pxListWasEmpty )
 645:Middlewares/Third_Party/FreeRTOS/Source/timers.c **** {
  28              		.loc 1 645 1 view -0
  29              		.cfi_startproc
  30              		@ args = 0, pretend = 0, frame = 0
  31              		@ frame_needed = 0, uses_anonymous_args = 0
  32              		@ link register save eliminated.
 646:Middlewares/Third_Party/FreeRTOS/Source/timers.c **** TickType_t xNextExpireTime;
  33              		.loc 1 646 1 view .LVU1
 647:Middlewares/Third_Party/FreeRTOS/Source/timers.c **** 
 648:Middlewares/Third_Party/FreeRTOS/Source/timers.c **** 	/* Timers are listed in expiry time order, with the head of the list
 649:Middlewares/Third_Party/FreeRTOS/Source/timers.c **** 	referencing the task that will expire first.  Obtain the time at which
 650:Middlewares/Third_Party/FreeRTOS/Source/timers.c **** 	the timer with the nearest expiry time will expire.  If there are no
 651:Middlewares/Third_Party/FreeRTOS/Source/timers.c **** 	active timers then just set the next expire time to 0.  That will cause
 652:Middlewares/Third_Party/FreeRTOS/Source/timers.c **** 	this task to unblock when the tick count overflows, at which point the
ARM GAS  /tmp/ccApgZAB.s 			page 13


 653:Middlewares/Third_Party/FreeRTOS/Source/timers.c **** 	timer lists will be switched and the next expiry time can be
 654:Middlewares/Third_Party/FreeRTOS/Source/timers.c **** 	re-assessed.  */
 655:Middlewares/Third_Party/FreeRTOS/Source/timers.c **** 	*pxListWasEmpty = listLIST_IS_EMPTY( pxCurrentTimerList );
  34              		.loc 1 655 2 view .LVU2
  35              		.loc 1 655 20 is_stmt 0 view .LVU3
  36 0000 064B     		ldr	r3, .L6
  37 0002 1A68     		ldr	r2, [r3]
  38 0004 1368     		ldr	r3, [r2]
  39 0006 2BB9     		cbnz	r3, .L4
  40 0008 0123     		movs	r3, #1
  41              	.L2:
  42              		.loc 1 655 18 discriminator 4 view .LVU4
  43 000a 0360     		str	r3, [r0]
 656:Middlewares/Third_Party/FreeRTOS/Source/timers.c **** 	if( *pxListWasEmpty == pdFALSE )
  44              		.loc 1 656 2 is_stmt 1 discriminator 4 view .LVU5
  45              		.loc 1 656 4 is_stmt 0 discriminator 4 view .LVU6
  46 000c 23B9     		cbnz	r3, .L5
 657:Middlewares/Third_Party/FreeRTOS/Source/timers.c **** 	{
 658:Middlewares/Third_Party/FreeRTOS/Source/timers.c **** 		xNextExpireTime = listGET_ITEM_VALUE_OF_HEAD_ENTRY( pxCurrentTimerList );
  47              		.loc 1 658 3 is_stmt 1 view .LVU7
  48              		.loc 1 658 21 is_stmt 0 view .LVU8
  49 000e D368     		ldr	r3, [r2, #12]
  50              		.loc 1 658 19 view .LVU9
  51 0010 1868     		ldr	r0, [r3]
  52              	.LVL1:
  53              		.loc 1 658 19 view .LVU10
  54 0012 7047     		bx	lr
  55              	.LVL2:
  56              	.L4:
 655:Middlewares/Third_Party/FreeRTOS/Source/timers.c **** 	if( *pxListWasEmpty == pdFALSE )
  57              		.loc 1 655 20 view .LVU11
  58 0014 0023     		movs	r3, #0
  59 0016 F8E7     		b	.L2
  60              	.L5:
 659:Middlewares/Third_Party/FreeRTOS/Source/timers.c **** 	}
 660:Middlewares/Third_Party/FreeRTOS/Source/timers.c **** 	else
 661:Middlewares/Third_Party/FreeRTOS/Source/timers.c **** 	{
 662:Middlewares/Third_Party/FreeRTOS/Source/timers.c **** 		/* Ensure the task unblocks when the tick count rolls over. */
 663:Middlewares/Third_Party/FreeRTOS/Source/timers.c **** 		xNextExpireTime = ( TickType_t ) 0U;
  61              		.loc 1 663 19 view .LVU12
  62 0018 0020     		movs	r0, #0
  63              	.LVL3:
 664:Middlewares/Third_Party/FreeRTOS/Source/timers.c **** 	}
 665:Middlewares/Third_Party/FreeRTOS/Source/timers.c **** 
 666:Middlewares/Third_Party/FreeRTOS/Source/timers.c **** 	return xNextExpireTime;
  64              		.loc 1 666 2 is_stmt 1 view .LVU13
 667:Middlewares/Third_Party/FreeRTOS/Source/timers.c **** }
  65              		.loc 1 667 1 is_stmt 0 view .LVU14
  66 001a 7047     		bx	lr
  67              	.L7:
  68              		.align	2
  69              	.L6:
  70 001c 00000000 		.word	.LANCHOR0
  71              		.cfi_endproc
  72              	.LFE18:
  74              		.section	.text.prvInsertTimerInActiveList,"ax",%progbits
  75              		.align	1
ARM GAS  /tmp/ccApgZAB.s 			page 14


  76              		.syntax unified
  77              		.thumb
  78              		.thumb_func
  79              		.fpu fpv5-d16
  81              	prvInsertTimerInActiveList:
  82              	.LVL4:
  83              	.LFB20:
 668:Middlewares/Third_Party/FreeRTOS/Source/timers.c **** /*-----------------------------------------------------------*/
 669:Middlewares/Third_Party/FreeRTOS/Source/timers.c **** 
 670:Middlewares/Third_Party/FreeRTOS/Source/timers.c **** static TickType_t prvSampleTimeNow( BaseType_t * const pxTimerListsWereSwitched )
 671:Middlewares/Third_Party/FreeRTOS/Source/timers.c **** {
 672:Middlewares/Third_Party/FreeRTOS/Source/timers.c **** TickType_t xTimeNow;
 673:Middlewares/Third_Party/FreeRTOS/Source/timers.c **** PRIVILEGED_DATA static TickType_t xLastTime = ( TickType_t ) 0U; /*lint !e956 Variable is only acce
 674:Middlewares/Third_Party/FreeRTOS/Source/timers.c **** 
 675:Middlewares/Third_Party/FreeRTOS/Source/timers.c **** 	xTimeNow = xTaskGetTickCount();
 676:Middlewares/Third_Party/FreeRTOS/Source/timers.c **** 
 677:Middlewares/Third_Party/FreeRTOS/Source/timers.c **** 	if( xTimeNow < xLastTime )
 678:Middlewares/Third_Party/FreeRTOS/Source/timers.c **** 	{
 679:Middlewares/Third_Party/FreeRTOS/Source/timers.c **** 		prvSwitchTimerLists();
 680:Middlewares/Third_Party/FreeRTOS/Source/timers.c **** 		*pxTimerListsWereSwitched = pdTRUE;
 681:Middlewares/Third_Party/FreeRTOS/Source/timers.c **** 	}
 682:Middlewares/Third_Party/FreeRTOS/Source/timers.c **** 	else
 683:Middlewares/Third_Party/FreeRTOS/Source/timers.c **** 	{
 684:Middlewares/Third_Party/FreeRTOS/Source/timers.c **** 		*pxTimerListsWereSwitched = pdFALSE;
 685:Middlewares/Third_Party/FreeRTOS/Source/timers.c **** 	}
 686:Middlewares/Third_Party/FreeRTOS/Source/timers.c **** 
 687:Middlewares/Third_Party/FreeRTOS/Source/timers.c **** 	xLastTime = xTimeNow;
 688:Middlewares/Third_Party/FreeRTOS/Source/timers.c **** 
 689:Middlewares/Third_Party/FreeRTOS/Source/timers.c **** 	return xTimeNow;
 690:Middlewares/Third_Party/FreeRTOS/Source/timers.c **** }
 691:Middlewares/Third_Party/FreeRTOS/Source/timers.c **** /*-----------------------------------------------------------*/
 692:Middlewares/Third_Party/FreeRTOS/Source/timers.c **** 
 693:Middlewares/Third_Party/FreeRTOS/Source/timers.c **** static BaseType_t prvInsertTimerInActiveList( Timer_t * const pxTimer, const TickType_t xNextExpiry
 694:Middlewares/Third_Party/FreeRTOS/Source/timers.c **** {
  84              		.loc 1 694 1 is_stmt 1 view -0
  85              		.cfi_startproc
  86              		@ args = 0, pretend = 0, frame = 0
  87              		@ frame_needed = 0, uses_anonymous_args = 0
  88              		.loc 1 694 1 is_stmt 0 view .LVU16
  89 0000 08B5     		push	{r3, lr}
  90              	.LCFI0:
  91              		.cfi_def_cfa_offset 8
  92              		.cfi_offset 3, -8
  93              		.cfi_offset 14, -4
 695:Middlewares/Third_Party/FreeRTOS/Source/timers.c **** BaseType_t xProcessTimerNow = pdFALSE;
  94              		.loc 1 695 1 is_stmt 1 view .LVU17
  95              	.LVL5:
 696:Middlewares/Third_Party/FreeRTOS/Source/timers.c **** 
 697:Middlewares/Third_Party/FreeRTOS/Source/timers.c **** 	listSET_LIST_ITEM_VALUE( &( pxTimer->xTimerListItem ), xNextExpiryTime );
  96              		.loc 1 697 2 view .LVU18
  97 0002 4160     		str	r1, [r0, #4]
 698:Middlewares/Third_Party/FreeRTOS/Source/timers.c **** 	listSET_LIST_ITEM_OWNER( &( pxTimer->xTimerListItem ), pxTimer );
  98              		.loc 1 698 2 view .LVU19
  99 0004 0061     		str	r0, [r0, #16]
 699:Middlewares/Third_Party/FreeRTOS/Source/timers.c **** 
 700:Middlewares/Third_Party/FreeRTOS/Source/timers.c **** 	if( xNextExpiryTime <= xTimeNow )
 100              		.loc 1 700 2 view .LVU20
ARM GAS  /tmp/ccApgZAB.s 			page 15


 101              		.loc 1 700 4 is_stmt 0 view .LVU21
 102 0006 9142     		cmp	r1, r2
 103 0008 0CD8     		bhi	.L9
 701:Middlewares/Third_Party/FreeRTOS/Source/timers.c **** 	{
 702:Middlewares/Third_Party/FreeRTOS/Source/timers.c **** 		/* Has the expiry time elapsed between the command to start/reset a
 703:Middlewares/Third_Party/FreeRTOS/Source/timers.c **** 		timer was issued, and the time the command was processed? */
 704:Middlewares/Third_Party/FreeRTOS/Source/timers.c **** 		if( ( ( TickType_t ) ( xTimeNow - xCommandTime ) ) >= pxTimer->xTimerPeriodInTicks ) /*lint !e961
 104              		.loc 1 704 3 is_stmt 1 view .LVU22
 105              		.loc 1 704 9 is_stmt 0 view .LVU23
 106 000a D21A     		subs	r2, r2, r3
 107              	.LVL6:
 108              		.loc 1 704 64 view .LVU24
 109 000c 8369     		ldr	r3, [r0, #24]
 110              	.LVL7:
 111              		.loc 1 704 5 view .LVU25
 112 000e 9A42     		cmp	r2, r3
 113 0010 01D3     		bcc	.L14
 705:Middlewares/Third_Party/FreeRTOS/Source/timers.c **** 		{
 706:Middlewares/Third_Party/FreeRTOS/Source/timers.c **** 			/* The time between a command being issued and the command being
 707:Middlewares/Third_Party/FreeRTOS/Source/timers.c **** 			processed actually exceeds the timers period.  */
 708:Middlewares/Third_Party/FreeRTOS/Source/timers.c **** 			xProcessTimerNow = pdTRUE;
 114              		.loc 1 708 21 view .LVU26
 115 0012 0120     		movs	r0, #1
 116              	.LVL8:
 117              	.L8:
 709:Middlewares/Third_Party/FreeRTOS/Source/timers.c **** 		}
 710:Middlewares/Third_Party/FreeRTOS/Source/timers.c **** 		else
 711:Middlewares/Third_Party/FreeRTOS/Source/timers.c **** 		{
 712:Middlewares/Third_Party/FreeRTOS/Source/timers.c **** 			vListInsert( pxOverflowTimerList, &( pxTimer->xTimerListItem ) );
 713:Middlewares/Third_Party/FreeRTOS/Source/timers.c **** 		}
 714:Middlewares/Third_Party/FreeRTOS/Source/timers.c **** 	}
 715:Middlewares/Third_Party/FreeRTOS/Source/timers.c **** 	else
 716:Middlewares/Third_Party/FreeRTOS/Source/timers.c **** 	{
 717:Middlewares/Third_Party/FreeRTOS/Source/timers.c **** 		if( ( xTimeNow < xCommandTime ) && ( xNextExpiryTime >= xCommandTime ) )
 718:Middlewares/Third_Party/FreeRTOS/Source/timers.c **** 		{
 719:Middlewares/Third_Party/FreeRTOS/Source/timers.c **** 			/* If, since the command was issued, the tick count has overflowed
 720:Middlewares/Third_Party/FreeRTOS/Source/timers.c **** 			but the expiry time has not, then the timer must have already passed
 721:Middlewares/Third_Party/FreeRTOS/Source/timers.c **** 			its expiry time and should be processed immediately. */
 722:Middlewares/Third_Party/FreeRTOS/Source/timers.c **** 			xProcessTimerNow = pdTRUE;
 723:Middlewares/Third_Party/FreeRTOS/Source/timers.c **** 		}
 724:Middlewares/Third_Party/FreeRTOS/Source/timers.c **** 		else
 725:Middlewares/Third_Party/FreeRTOS/Source/timers.c **** 		{
 726:Middlewares/Third_Party/FreeRTOS/Source/timers.c **** 			vListInsert( pxCurrentTimerList, &( pxTimer->xTimerListItem ) );
 727:Middlewares/Third_Party/FreeRTOS/Source/timers.c **** 		}
 728:Middlewares/Third_Party/FreeRTOS/Source/timers.c **** 	}
 729:Middlewares/Third_Party/FreeRTOS/Source/timers.c **** 
 730:Middlewares/Third_Party/FreeRTOS/Source/timers.c **** 	return xProcessTimerNow;
 731:Middlewares/Third_Party/FreeRTOS/Source/timers.c **** }
 118              		.loc 1 731 1 view .LVU27
 119 0014 08BD     		pop	{r3, pc}
 120              	.LVL9:
 121              	.L14:
 712:Middlewares/Third_Party/FreeRTOS/Source/timers.c **** 		}
 122              		.loc 1 712 4 is_stmt 1 view .LVU28
 123 0016 011D     		adds	r1, r0, #4
 124              	.LVL10:
 712:Middlewares/Third_Party/FreeRTOS/Source/timers.c **** 		}
ARM GAS  /tmp/ccApgZAB.s 			page 16


 125              		.loc 1 712 4 is_stmt 0 view .LVU29
 126 0018 0B4B     		ldr	r3, .L16
 127 001a 1868     		ldr	r0, [r3]
 128              	.LVL11:
 712:Middlewares/Third_Party/FreeRTOS/Source/timers.c **** 		}
 129              		.loc 1 712 4 view .LVU30
 130 001c FFF7FEFF 		bl	vListInsert
 131              	.LVL12:
 695:Middlewares/Third_Party/FreeRTOS/Source/timers.c **** 
 132              		.loc 1 695 12 view .LVU31
 133 0020 0020     		movs	r0, #0
 134 0022 F7E7     		b	.L8
 135              	.LVL13:
 136              	.L9:
 717:Middlewares/Third_Party/FreeRTOS/Source/timers.c **** 		{
 137              		.loc 1 717 3 is_stmt 1 view .LVU32
 717:Middlewares/Third_Party/FreeRTOS/Source/timers.c **** 		{
 138              		.loc 1 717 35 is_stmt 0 view .LVU33
 139 0024 9A42     		cmp	r2, r3
 140 0026 2CBF     		ite	cs
 141 0028 0022     		movcs	r2, #0
 142              	.LVL14:
 717:Middlewares/Third_Party/FreeRTOS/Source/timers.c **** 		{
 143              		.loc 1 717 35 view .LVU34
 144 002a 0122     		movcc	r2, #1
 145 002c 9942     		cmp	r1, r3
 146 002e 38BF     		it	cc
 147 0030 0022     		movcc	r2, #0
 717:Middlewares/Third_Party/FreeRTOS/Source/timers.c **** 		{
 148              		.loc 1 717 5 view .LVU35
 149 0032 0AB1     		cbz	r2, .L15
 722:Middlewares/Third_Party/FreeRTOS/Source/timers.c **** 		}
 150              		.loc 1 722 21 view .LVU36
 151 0034 0120     		movs	r0, #1
 152              	.LVL15:
 730:Middlewares/Third_Party/FreeRTOS/Source/timers.c **** }
 153              		.loc 1 730 2 is_stmt 1 view .LVU37
 730:Middlewares/Third_Party/FreeRTOS/Source/timers.c **** }
 154              		.loc 1 730 9 is_stmt 0 view .LVU38
 155 0036 EDE7     		b	.L8
 156              	.LVL16:
 157              	.L15:
 726:Middlewares/Third_Party/FreeRTOS/Source/timers.c **** 		}
 158              		.loc 1 726 4 is_stmt 1 view .LVU39
 159 0038 011D     		adds	r1, r0, #4
 160              	.LVL17:
 726:Middlewares/Third_Party/FreeRTOS/Source/timers.c **** 		}
 161              		.loc 1 726 4 is_stmt 0 view .LVU40
 162 003a 044B     		ldr	r3, .L16+4
 163              	.LVL18:
 726:Middlewares/Third_Party/FreeRTOS/Source/timers.c **** 		}
 164              		.loc 1 726 4 view .LVU41
 165 003c 1868     		ldr	r0, [r3]
 166              	.LVL19:
 726:Middlewares/Third_Party/FreeRTOS/Source/timers.c **** 		}
 167              		.loc 1 726 4 view .LVU42
 168 003e FFF7FEFF 		bl	vListInsert
ARM GAS  /tmp/ccApgZAB.s 			page 17


 169              	.LVL20:
 695:Middlewares/Third_Party/FreeRTOS/Source/timers.c **** 
 170              		.loc 1 695 12 view .LVU43
 171 0042 0020     		movs	r0, #0
 172 0044 E6E7     		b	.L8
 173              	.L17:
 174 0046 00BF     		.align	2
 175              	.L16:
 176 0048 00000000 		.word	.LANCHOR1
 177 004c 00000000 		.word	.LANCHOR0
 178              		.cfi_endproc
 179              	.LFE20:
 181              		.section	.rodata.prvCheckForValidListAndQueue.str1.4,"aMS",%progbits,1
 182              		.align	2
 183              	.LC0:
 184 0000 546D7251 		.ascii	"TmrQ\000"
 184      00
 185              		.section	.text.prvCheckForValidListAndQueue,"ax",%progbits
 186              		.align	1
 187              		.syntax unified
 188              		.thumb
 189              		.thumb_func
 190              		.fpu fpv5-d16
 192              	prvCheckForValidListAndQueue:
 193              	.LFB23:
 732:Middlewares/Third_Party/FreeRTOS/Source/timers.c **** /*-----------------------------------------------------------*/
 733:Middlewares/Third_Party/FreeRTOS/Source/timers.c **** 
 734:Middlewares/Third_Party/FreeRTOS/Source/timers.c **** static void	prvProcessReceivedCommands( void )
 735:Middlewares/Third_Party/FreeRTOS/Source/timers.c **** {
 736:Middlewares/Third_Party/FreeRTOS/Source/timers.c **** DaemonTaskMessage_t xMessage;
 737:Middlewares/Third_Party/FreeRTOS/Source/timers.c **** Timer_t *pxTimer;
 738:Middlewares/Third_Party/FreeRTOS/Source/timers.c **** BaseType_t xTimerListsWereSwitched, xResult;
 739:Middlewares/Third_Party/FreeRTOS/Source/timers.c **** TickType_t xTimeNow;
 740:Middlewares/Third_Party/FreeRTOS/Source/timers.c **** 
 741:Middlewares/Third_Party/FreeRTOS/Source/timers.c **** 	while( xQueueReceive( xTimerQueue, &xMessage, tmrNO_DELAY ) != pdFAIL ) /*lint !e603 xMessage does
 742:Middlewares/Third_Party/FreeRTOS/Source/timers.c **** 	{
 743:Middlewares/Third_Party/FreeRTOS/Source/timers.c **** 		#if ( INCLUDE_xTimerPendFunctionCall == 1 )
 744:Middlewares/Third_Party/FreeRTOS/Source/timers.c **** 		{
 745:Middlewares/Third_Party/FreeRTOS/Source/timers.c **** 			/* Negative commands are pended function calls rather than timer
 746:Middlewares/Third_Party/FreeRTOS/Source/timers.c **** 			commands. */
 747:Middlewares/Third_Party/FreeRTOS/Source/timers.c **** 			if( xMessage.xMessageID < ( BaseType_t ) 0 )
 748:Middlewares/Third_Party/FreeRTOS/Source/timers.c **** 			{
 749:Middlewares/Third_Party/FreeRTOS/Source/timers.c **** 				const CallbackParameters_t * const pxCallback = &( xMessage.u.xCallbackParameters );
 750:Middlewares/Third_Party/FreeRTOS/Source/timers.c **** 
 751:Middlewares/Third_Party/FreeRTOS/Source/timers.c **** 				/* The timer uses the xCallbackParameters member to request a
 752:Middlewares/Third_Party/FreeRTOS/Source/timers.c **** 				callback be executed.  Check the callback is not NULL. */
 753:Middlewares/Third_Party/FreeRTOS/Source/timers.c **** 				configASSERT( pxCallback );
 754:Middlewares/Third_Party/FreeRTOS/Source/timers.c **** 
 755:Middlewares/Third_Party/FreeRTOS/Source/timers.c **** 				/* Call the function. */
 756:Middlewares/Third_Party/FreeRTOS/Source/timers.c **** 				pxCallback->pxCallbackFunction( pxCallback->pvParameter1, pxCallback->ulParameter2 );
 757:Middlewares/Third_Party/FreeRTOS/Source/timers.c **** 			}
 758:Middlewares/Third_Party/FreeRTOS/Source/timers.c **** 			else
 759:Middlewares/Third_Party/FreeRTOS/Source/timers.c **** 			{
 760:Middlewares/Third_Party/FreeRTOS/Source/timers.c **** 				mtCOVERAGE_TEST_MARKER();
 761:Middlewares/Third_Party/FreeRTOS/Source/timers.c **** 			}
 762:Middlewares/Third_Party/FreeRTOS/Source/timers.c **** 		}
 763:Middlewares/Third_Party/FreeRTOS/Source/timers.c **** 		#endif /* INCLUDE_xTimerPendFunctionCall */
ARM GAS  /tmp/ccApgZAB.s 			page 18


 764:Middlewares/Third_Party/FreeRTOS/Source/timers.c **** 
 765:Middlewares/Third_Party/FreeRTOS/Source/timers.c **** 		/* Commands that are positive are timer commands rather than pended
 766:Middlewares/Third_Party/FreeRTOS/Source/timers.c **** 		function calls. */
 767:Middlewares/Third_Party/FreeRTOS/Source/timers.c **** 		if( xMessage.xMessageID >= ( BaseType_t ) 0 )
 768:Middlewares/Third_Party/FreeRTOS/Source/timers.c **** 		{
 769:Middlewares/Third_Party/FreeRTOS/Source/timers.c **** 			/* The messages uses the xTimerParameters member to work on a
 770:Middlewares/Third_Party/FreeRTOS/Source/timers.c **** 			software timer. */
 771:Middlewares/Third_Party/FreeRTOS/Source/timers.c **** 			pxTimer = xMessage.u.xTimerParameters.pxTimer;
 772:Middlewares/Third_Party/FreeRTOS/Source/timers.c **** 
 773:Middlewares/Third_Party/FreeRTOS/Source/timers.c **** 			if( listIS_CONTAINED_WITHIN( NULL, &( pxTimer->xTimerListItem ) ) == pdFALSE ) /*lint !e961. The
 774:Middlewares/Third_Party/FreeRTOS/Source/timers.c **** 			{
 775:Middlewares/Third_Party/FreeRTOS/Source/timers.c **** 				/* The timer is in a list, remove it. */
 776:Middlewares/Third_Party/FreeRTOS/Source/timers.c **** 				( void ) uxListRemove( &( pxTimer->xTimerListItem ) );
 777:Middlewares/Third_Party/FreeRTOS/Source/timers.c **** 			}
 778:Middlewares/Third_Party/FreeRTOS/Source/timers.c **** 			else
 779:Middlewares/Third_Party/FreeRTOS/Source/timers.c **** 			{
 780:Middlewares/Third_Party/FreeRTOS/Source/timers.c **** 				mtCOVERAGE_TEST_MARKER();
 781:Middlewares/Third_Party/FreeRTOS/Source/timers.c **** 			}
 782:Middlewares/Third_Party/FreeRTOS/Source/timers.c **** 
 783:Middlewares/Third_Party/FreeRTOS/Source/timers.c **** 			traceTIMER_COMMAND_RECEIVED( pxTimer, xMessage.xMessageID, xMessage.u.xTimerParameters.xMessageV
 784:Middlewares/Third_Party/FreeRTOS/Source/timers.c **** 
 785:Middlewares/Third_Party/FreeRTOS/Source/timers.c **** 			/* In this case the xTimerListsWereSwitched parameter is not used, but
 786:Middlewares/Third_Party/FreeRTOS/Source/timers.c **** 			it must be present in the function call.  prvSampleTimeNow() must be
 787:Middlewares/Third_Party/FreeRTOS/Source/timers.c **** 			called after the message is received from xTimerQueue so there is no
 788:Middlewares/Third_Party/FreeRTOS/Source/timers.c **** 			possibility of a higher priority task adding a message to the message
 789:Middlewares/Third_Party/FreeRTOS/Source/timers.c **** 			queue with a time that is ahead of the timer daemon task (because it
 790:Middlewares/Third_Party/FreeRTOS/Source/timers.c **** 			pre-empted the timer daemon task after the xTimeNow value was set). */
 791:Middlewares/Third_Party/FreeRTOS/Source/timers.c **** 			xTimeNow = prvSampleTimeNow( &xTimerListsWereSwitched );
 792:Middlewares/Third_Party/FreeRTOS/Source/timers.c **** 
 793:Middlewares/Third_Party/FreeRTOS/Source/timers.c **** 			switch( xMessage.xMessageID )
 794:Middlewares/Third_Party/FreeRTOS/Source/timers.c **** 			{
 795:Middlewares/Third_Party/FreeRTOS/Source/timers.c **** 				case tmrCOMMAND_START :
 796:Middlewares/Third_Party/FreeRTOS/Source/timers.c **** 				case tmrCOMMAND_START_FROM_ISR :
 797:Middlewares/Third_Party/FreeRTOS/Source/timers.c **** 				case tmrCOMMAND_RESET :
 798:Middlewares/Third_Party/FreeRTOS/Source/timers.c **** 				case tmrCOMMAND_RESET_FROM_ISR :
 799:Middlewares/Third_Party/FreeRTOS/Source/timers.c **** 				case tmrCOMMAND_START_DONT_TRACE :
 800:Middlewares/Third_Party/FreeRTOS/Source/timers.c **** 					/* Start or restart a timer. */
 801:Middlewares/Third_Party/FreeRTOS/Source/timers.c **** 					pxTimer->ucStatus |= tmrSTATUS_IS_ACTIVE;
 802:Middlewares/Third_Party/FreeRTOS/Source/timers.c **** 					if( prvInsertTimerInActiveList( pxTimer,  xMessage.u.xTimerParameters.xMessageValue + pxTimer-
 803:Middlewares/Third_Party/FreeRTOS/Source/timers.c **** 					{
 804:Middlewares/Third_Party/FreeRTOS/Source/timers.c **** 						/* The timer expired before it was added to the active
 805:Middlewares/Third_Party/FreeRTOS/Source/timers.c **** 						timer list.  Process it now. */
 806:Middlewares/Third_Party/FreeRTOS/Source/timers.c **** 						pxTimer->pxCallbackFunction( ( TimerHandle_t ) pxTimer );
 807:Middlewares/Third_Party/FreeRTOS/Source/timers.c **** 						traceTIMER_EXPIRED( pxTimer );
 808:Middlewares/Third_Party/FreeRTOS/Source/timers.c **** 
 809:Middlewares/Third_Party/FreeRTOS/Source/timers.c **** 						if( ( pxTimer->ucStatus & tmrSTATUS_IS_AUTORELOAD ) != 0 )
 810:Middlewares/Third_Party/FreeRTOS/Source/timers.c **** 						{
 811:Middlewares/Third_Party/FreeRTOS/Source/timers.c **** 							xResult = xTimerGenericCommand( pxTimer, tmrCOMMAND_START_DONT_TRACE, xMessage.u.xTimerParam
 812:Middlewares/Third_Party/FreeRTOS/Source/timers.c **** 							configASSERT( xResult );
 813:Middlewares/Third_Party/FreeRTOS/Source/timers.c **** 							( void ) xResult;
 814:Middlewares/Third_Party/FreeRTOS/Source/timers.c **** 						}
 815:Middlewares/Third_Party/FreeRTOS/Source/timers.c **** 						else
 816:Middlewares/Third_Party/FreeRTOS/Source/timers.c **** 						{
 817:Middlewares/Third_Party/FreeRTOS/Source/timers.c **** 							mtCOVERAGE_TEST_MARKER();
 818:Middlewares/Third_Party/FreeRTOS/Source/timers.c **** 						}
 819:Middlewares/Third_Party/FreeRTOS/Source/timers.c **** 					}
 820:Middlewares/Third_Party/FreeRTOS/Source/timers.c **** 					else
ARM GAS  /tmp/ccApgZAB.s 			page 19


 821:Middlewares/Third_Party/FreeRTOS/Source/timers.c **** 					{
 822:Middlewares/Third_Party/FreeRTOS/Source/timers.c **** 						mtCOVERAGE_TEST_MARKER();
 823:Middlewares/Third_Party/FreeRTOS/Source/timers.c **** 					}
 824:Middlewares/Third_Party/FreeRTOS/Source/timers.c **** 					break;
 825:Middlewares/Third_Party/FreeRTOS/Source/timers.c **** 
 826:Middlewares/Third_Party/FreeRTOS/Source/timers.c **** 				case tmrCOMMAND_STOP :
 827:Middlewares/Third_Party/FreeRTOS/Source/timers.c **** 				case tmrCOMMAND_STOP_FROM_ISR :
 828:Middlewares/Third_Party/FreeRTOS/Source/timers.c **** 					/* The timer has already been removed from the active list. */
 829:Middlewares/Third_Party/FreeRTOS/Source/timers.c **** 					pxTimer->ucStatus &= ~tmrSTATUS_IS_ACTIVE;
 830:Middlewares/Third_Party/FreeRTOS/Source/timers.c **** 					break;
 831:Middlewares/Third_Party/FreeRTOS/Source/timers.c **** 
 832:Middlewares/Third_Party/FreeRTOS/Source/timers.c **** 				case tmrCOMMAND_CHANGE_PERIOD :
 833:Middlewares/Third_Party/FreeRTOS/Source/timers.c **** 				case tmrCOMMAND_CHANGE_PERIOD_FROM_ISR :
 834:Middlewares/Third_Party/FreeRTOS/Source/timers.c **** 					pxTimer->ucStatus |= tmrSTATUS_IS_ACTIVE;
 835:Middlewares/Third_Party/FreeRTOS/Source/timers.c **** 					pxTimer->xTimerPeriodInTicks = xMessage.u.xTimerParameters.xMessageValue;
 836:Middlewares/Third_Party/FreeRTOS/Source/timers.c **** 					configASSERT( ( pxTimer->xTimerPeriodInTicks > 0 ) );
 837:Middlewares/Third_Party/FreeRTOS/Source/timers.c **** 
 838:Middlewares/Third_Party/FreeRTOS/Source/timers.c **** 					/* The new period does not really have a reference, and can
 839:Middlewares/Third_Party/FreeRTOS/Source/timers.c **** 					be longer or shorter than the old one.  The command time is
 840:Middlewares/Third_Party/FreeRTOS/Source/timers.c **** 					therefore set to the current time, and as the period cannot
 841:Middlewares/Third_Party/FreeRTOS/Source/timers.c **** 					be zero the next expiry time can only be in the future,
 842:Middlewares/Third_Party/FreeRTOS/Source/timers.c **** 					meaning (unlike for the xTimerStart() case above) there is
 843:Middlewares/Third_Party/FreeRTOS/Source/timers.c **** 					no fail case that needs to be handled here. */
 844:Middlewares/Third_Party/FreeRTOS/Source/timers.c **** 					( void ) prvInsertTimerInActiveList( pxTimer, ( xTimeNow + pxTimer->xTimerPeriodInTicks ), xTi
 845:Middlewares/Third_Party/FreeRTOS/Source/timers.c **** 					break;
 846:Middlewares/Third_Party/FreeRTOS/Source/timers.c **** 
 847:Middlewares/Third_Party/FreeRTOS/Source/timers.c **** 				case tmrCOMMAND_DELETE :
 848:Middlewares/Third_Party/FreeRTOS/Source/timers.c **** 					#if ( configSUPPORT_DYNAMIC_ALLOCATION == 1 )
 849:Middlewares/Third_Party/FreeRTOS/Source/timers.c **** 					{
 850:Middlewares/Third_Party/FreeRTOS/Source/timers.c **** 						/* The timer has already been removed from the active list,
 851:Middlewares/Third_Party/FreeRTOS/Source/timers.c **** 						just free up the memory if the memory was dynamically
 852:Middlewares/Third_Party/FreeRTOS/Source/timers.c **** 						allocated. */
 853:Middlewares/Third_Party/FreeRTOS/Source/timers.c **** 						if( ( pxTimer->ucStatus & tmrSTATUS_IS_STATICALLY_ALLOCATED ) == ( uint8_t ) 0 )
 854:Middlewares/Third_Party/FreeRTOS/Source/timers.c **** 						{
 855:Middlewares/Third_Party/FreeRTOS/Source/timers.c **** 							vPortFree( pxTimer );
 856:Middlewares/Third_Party/FreeRTOS/Source/timers.c **** 						}
 857:Middlewares/Third_Party/FreeRTOS/Source/timers.c **** 						else
 858:Middlewares/Third_Party/FreeRTOS/Source/timers.c **** 						{
 859:Middlewares/Third_Party/FreeRTOS/Source/timers.c **** 							pxTimer->ucStatus &= ~tmrSTATUS_IS_ACTIVE;
 860:Middlewares/Third_Party/FreeRTOS/Source/timers.c **** 						}
 861:Middlewares/Third_Party/FreeRTOS/Source/timers.c **** 					}
 862:Middlewares/Third_Party/FreeRTOS/Source/timers.c **** 					#else
 863:Middlewares/Third_Party/FreeRTOS/Source/timers.c **** 					{
 864:Middlewares/Third_Party/FreeRTOS/Source/timers.c **** 						/* If dynamic allocation is not enabled, the memory
 865:Middlewares/Third_Party/FreeRTOS/Source/timers.c **** 						could not have been dynamically allocated. So there is
 866:Middlewares/Third_Party/FreeRTOS/Source/timers.c **** 						no need to free the memory - just mark the timer as
 867:Middlewares/Third_Party/FreeRTOS/Source/timers.c **** 						"not active". */
 868:Middlewares/Third_Party/FreeRTOS/Source/timers.c **** 						pxTimer->ucStatus &= ~tmrSTATUS_IS_ACTIVE;
 869:Middlewares/Third_Party/FreeRTOS/Source/timers.c **** 					}
 870:Middlewares/Third_Party/FreeRTOS/Source/timers.c **** 					#endif /* configSUPPORT_DYNAMIC_ALLOCATION */
 871:Middlewares/Third_Party/FreeRTOS/Source/timers.c **** 					break;
 872:Middlewares/Third_Party/FreeRTOS/Source/timers.c **** 
 873:Middlewares/Third_Party/FreeRTOS/Source/timers.c **** 				default	:
 874:Middlewares/Third_Party/FreeRTOS/Source/timers.c **** 					/* Don't expect to get here. */
 875:Middlewares/Third_Party/FreeRTOS/Source/timers.c **** 					break;
 876:Middlewares/Third_Party/FreeRTOS/Source/timers.c **** 			}
 877:Middlewares/Third_Party/FreeRTOS/Source/timers.c **** 		}
ARM GAS  /tmp/ccApgZAB.s 			page 20


 878:Middlewares/Third_Party/FreeRTOS/Source/timers.c **** 	}
 879:Middlewares/Third_Party/FreeRTOS/Source/timers.c **** }
 880:Middlewares/Third_Party/FreeRTOS/Source/timers.c **** /*-----------------------------------------------------------*/
 881:Middlewares/Third_Party/FreeRTOS/Source/timers.c **** 
 882:Middlewares/Third_Party/FreeRTOS/Source/timers.c **** static void prvSwitchTimerLists( void )
 883:Middlewares/Third_Party/FreeRTOS/Source/timers.c **** {
 884:Middlewares/Third_Party/FreeRTOS/Source/timers.c **** TickType_t xNextExpireTime, xReloadTime;
 885:Middlewares/Third_Party/FreeRTOS/Source/timers.c **** List_t *pxTemp;
 886:Middlewares/Third_Party/FreeRTOS/Source/timers.c **** Timer_t *pxTimer;
 887:Middlewares/Third_Party/FreeRTOS/Source/timers.c **** BaseType_t xResult;
 888:Middlewares/Third_Party/FreeRTOS/Source/timers.c **** 
 889:Middlewares/Third_Party/FreeRTOS/Source/timers.c **** 	/* The tick count has overflowed.  The timer lists must be switched.
 890:Middlewares/Third_Party/FreeRTOS/Source/timers.c **** 	If there are any timers still referenced from the current timer list
 891:Middlewares/Third_Party/FreeRTOS/Source/timers.c **** 	then they must have expired and should be processed before the lists
 892:Middlewares/Third_Party/FreeRTOS/Source/timers.c **** 	are switched. */
 893:Middlewares/Third_Party/FreeRTOS/Source/timers.c **** 	while( listLIST_IS_EMPTY( pxCurrentTimerList ) == pdFALSE )
 894:Middlewares/Third_Party/FreeRTOS/Source/timers.c **** 	{
 895:Middlewares/Third_Party/FreeRTOS/Source/timers.c **** 		xNextExpireTime = listGET_ITEM_VALUE_OF_HEAD_ENTRY( pxCurrentTimerList );
 896:Middlewares/Third_Party/FreeRTOS/Source/timers.c **** 
 897:Middlewares/Third_Party/FreeRTOS/Source/timers.c **** 		/* Remove the timer from the list. */
 898:Middlewares/Third_Party/FreeRTOS/Source/timers.c **** 		pxTimer = ( Timer_t * ) listGET_OWNER_OF_HEAD_ENTRY( pxCurrentTimerList ); /*lint !e9087 !e9079 v
 899:Middlewares/Third_Party/FreeRTOS/Source/timers.c **** 		( void ) uxListRemove( &( pxTimer->xTimerListItem ) );
 900:Middlewares/Third_Party/FreeRTOS/Source/timers.c **** 		traceTIMER_EXPIRED( pxTimer );
 901:Middlewares/Third_Party/FreeRTOS/Source/timers.c **** 
 902:Middlewares/Third_Party/FreeRTOS/Source/timers.c **** 		/* Execute its callback, then send a command to restart the timer if
 903:Middlewares/Third_Party/FreeRTOS/Source/timers.c **** 		it is an auto-reload timer.  It cannot be restarted here as the lists
 904:Middlewares/Third_Party/FreeRTOS/Source/timers.c **** 		have not yet been switched. */
 905:Middlewares/Third_Party/FreeRTOS/Source/timers.c **** 		pxTimer->pxCallbackFunction( ( TimerHandle_t ) pxTimer );
 906:Middlewares/Third_Party/FreeRTOS/Source/timers.c **** 
 907:Middlewares/Third_Party/FreeRTOS/Source/timers.c **** 		if( ( pxTimer->ucStatus & tmrSTATUS_IS_AUTORELOAD ) != 0 )
 908:Middlewares/Third_Party/FreeRTOS/Source/timers.c **** 		{
 909:Middlewares/Third_Party/FreeRTOS/Source/timers.c **** 			/* Calculate the reload value, and if the reload value results in
 910:Middlewares/Third_Party/FreeRTOS/Source/timers.c **** 			the timer going into the same timer list then it has already expired
 911:Middlewares/Third_Party/FreeRTOS/Source/timers.c **** 			and the timer should be re-inserted into the current list so it is
 912:Middlewares/Third_Party/FreeRTOS/Source/timers.c **** 			processed again within this loop.  Otherwise a command should be sent
 913:Middlewares/Third_Party/FreeRTOS/Source/timers.c **** 			to restart the timer to ensure it is only inserted into a list after
 914:Middlewares/Third_Party/FreeRTOS/Source/timers.c **** 			the lists have been swapped. */
 915:Middlewares/Third_Party/FreeRTOS/Source/timers.c **** 			xReloadTime = ( xNextExpireTime + pxTimer->xTimerPeriodInTicks );
 916:Middlewares/Third_Party/FreeRTOS/Source/timers.c **** 			if( xReloadTime > xNextExpireTime )
 917:Middlewares/Third_Party/FreeRTOS/Source/timers.c **** 			{
 918:Middlewares/Third_Party/FreeRTOS/Source/timers.c **** 				listSET_LIST_ITEM_VALUE( &( pxTimer->xTimerListItem ), xReloadTime );
 919:Middlewares/Third_Party/FreeRTOS/Source/timers.c **** 				listSET_LIST_ITEM_OWNER( &( pxTimer->xTimerListItem ), pxTimer );
 920:Middlewares/Third_Party/FreeRTOS/Source/timers.c **** 				vListInsert( pxCurrentTimerList, &( pxTimer->xTimerListItem ) );
 921:Middlewares/Third_Party/FreeRTOS/Source/timers.c **** 			}
 922:Middlewares/Third_Party/FreeRTOS/Source/timers.c **** 			else
 923:Middlewares/Third_Party/FreeRTOS/Source/timers.c **** 			{
 924:Middlewares/Third_Party/FreeRTOS/Source/timers.c **** 				xResult = xTimerGenericCommand( pxTimer, tmrCOMMAND_START_DONT_TRACE, xNextExpireTime, NULL, tm
 925:Middlewares/Third_Party/FreeRTOS/Source/timers.c **** 				configASSERT( xResult );
 926:Middlewares/Third_Party/FreeRTOS/Source/timers.c **** 				( void ) xResult;
 927:Middlewares/Third_Party/FreeRTOS/Source/timers.c **** 			}
 928:Middlewares/Third_Party/FreeRTOS/Source/timers.c **** 		}
 929:Middlewares/Third_Party/FreeRTOS/Source/timers.c **** 		else
 930:Middlewares/Third_Party/FreeRTOS/Source/timers.c **** 		{
 931:Middlewares/Third_Party/FreeRTOS/Source/timers.c **** 			mtCOVERAGE_TEST_MARKER();
 932:Middlewares/Third_Party/FreeRTOS/Source/timers.c **** 		}
 933:Middlewares/Third_Party/FreeRTOS/Source/timers.c **** 	}
 934:Middlewares/Third_Party/FreeRTOS/Source/timers.c **** 
ARM GAS  /tmp/ccApgZAB.s 			page 21


 935:Middlewares/Third_Party/FreeRTOS/Source/timers.c **** 	pxTemp = pxCurrentTimerList;
 936:Middlewares/Third_Party/FreeRTOS/Source/timers.c **** 	pxCurrentTimerList = pxOverflowTimerList;
 937:Middlewares/Third_Party/FreeRTOS/Source/timers.c **** 	pxOverflowTimerList = pxTemp;
 938:Middlewares/Third_Party/FreeRTOS/Source/timers.c **** }
 939:Middlewares/Third_Party/FreeRTOS/Source/timers.c **** /*-----------------------------------------------------------*/
 940:Middlewares/Third_Party/FreeRTOS/Source/timers.c **** 
 941:Middlewares/Third_Party/FreeRTOS/Source/timers.c **** static void prvCheckForValidListAndQueue( void )
 942:Middlewares/Third_Party/FreeRTOS/Source/timers.c **** {
 194              		.loc 1 942 1 is_stmt 1 view -0
 195              		.cfi_startproc
 196              		@ args = 0, pretend = 0, frame = 0
 197              		@ frame_needed = 0, uses_anonymous_args = 0
 198 0000 30B5     		push	{r4, r5, lr}
 199              	.LCFI1:
 200              		.cfi_def_cfa_offset 12
 201              		.cfi_offset 4, -12
 202              		.cfi_offset 5, -8
 203              		.cfi_offset 14, -4
 204 0002 83B0     		sub	sp, sp, #12
 205              	.LCFI2:
 206              		.cfi_def_cfa_offset 24
 943:Middlewares/Third_Party/FreeRTOS/Source/timers.c **** 	/* Check that the list from which active timers are referenced, and the
 944:Middlewares/Third_Party/FreeRTOS/Source/timers.c **** 	queue used to communicate with the timer service, have been
 945:Middlewares/Third_Party/FreeRTOS/Source/timers.c **** 	initialised. */
 946:Middlewares/Third_Party/FreeRTOS/Source/timers.c **** 	taskENTER_CRITICAL();
 207              		.loc 1 946 2 view .LVU45
 208 0004 FFF7FEFF 		bl	vPortEnterCritical
 209              	.LVL21:
 947:Middlewares/Third_Party/FreeRTOS/Source/timers.c **** 	{
 948:Middlewares/Third_Party/FreeRTOS/Source/timers.c **** 		if( xTimerQueue == NULL )
 210              		.loc 1 948 3 view .LVU46
 211              		.loc 1 948 19 is_stmt 0 view .LVU47
 212 0008 114B     		ldr	r3, .L22
 213 000a 1B68     		ldr	r3, [r3]
 214              		.loc 1 948 5 view .LVU48
 215 000c 1BB1     		cbz	r3, .L21
 216              	.L19:
 949:Middlewares/Third_Party/FreeRTOS/Source/timers.c **** 		{
 950:Middlewares/Third_Party/FreeRTOS/Source/timers.c **** 			vListInitialise( &xActiveTimerList1 );
 951:Middlewares/Third_Party/FreeRTOS/Source/timers.c **** 			vListInitialise( &xActiveTimerList2 );
 952:Middlewares/Third_Party/FreeRTOS/Source/timers.c **** 			pxCurrentTimerList = &xActiveTimerList1;
 953:Middlewares/Third_Party/FreeRTOS/Source/timers.c **** 			pxOverflowTimerList = &xActiveTimerList2;
 954:Middlewares/Third_Party/FreeRTOS/Source/timers.c **** 
 955:Middlewares/Third_Party/FreeRTOS/Source/timers.c **** 			#if( configSUPPORT_STATIC_ALLOCATION == 1 )
 956:Middlewares/Third_Party/FreeRTOS/Source/timers.c **** 			{
 957:Middlewares/Third_Party/FreeRTOS/Source/timers.c **** 				/* The timer queue is allocated statically in case
 958:Middlewares/Third_Party/FreeRTOS/Source/timers.c **** 				configSUPPORT_DYNAMIC_ALLOCATION is 0. */
 959:Middlewares/Third_Party/FreeRTOS/Source/timers.c **** 				static StaticQueue_t xStaticTimerQueue; /*lint !e956 Ok to declare in this manner to prevent ad
 960:Middlewares/Third_Party/FreeRTOS/Source/timers.c **** 				static uint8_t ucStaticTimerQueueStorage[ ( size_t ) configTIMER_QUEUE_LENGTH * sizeof( DaemonT
 961:Middlewares/Third_Party/FreeRTOS/Source/timers.c **** 
 962:Middlewares/Third_Party/FreeRTOS/Source/timers.c **** 				xTimerQueue = xQueueCreateStatic( ( UBaseType_t ) configTIMER_QUEUE_LENGTH, ( UBaseType_t ) siz
 963:Middlewares/Third_Party/FreeRTOS/Source/timers.c **** 			}
 964:Middlewares/Third_Party/FreeRTOS/Source/timers.c **** 			#else
 965:Middlewares/Third_Party/FreeRTOS/Source/timers.c **** 			{
 966:Middlewares/Third_Party/FreeRTOS/Source/timers.c **** 				xTimerQueue = xQueueCreate( ( UBaseType_t ) configTIMER_QUEUE_LENGTH, sizeof( DaemonTaskMessage
 967:Middlewares/Third_Party/FreeRTOS/Source/timers.c **** 			}
 968:Middlewares/Third_Party/FreeRTOS/Source/timers.c **** 			#endif
ARM GAS  /tmp/ccApgZAB.s 			page 22


 969:Middlewares/Third_Party/FreeRTOS/Source/timers.c **** 
 970:Middlewares/Third_Party/FreeRTOS/Source/timers.c **** 			#if ( configQUEUE_REGISTRY_SIZE > 0 )
 971:Middlewares/Third_Party/FreeRTOS/Source/timers.c **** 			{
 972:Middlewares/Third_Party/FreeRTOS/Source/timers.c **** 				if( xTimerQueue != NULL )
 973:Middlewares/Third_Party/FreeRTOS/Source/timers.c **** 				{
 974:Middlewares/Third_Party/FreeRTOS/Source/timers.c **** 					vQueueAddToRegistry( xTimerQueue, "TmrQ" );
 975:Middlewares/Third_Party/FreeRTOS/Source/timers.c **** 				}
 976:Middlewares/Third_Party/FreeRTOS/Source/timers.c **** 				else
 977:Middlewares/Third_Party/FreeRTOS/Source/timers.c **** 				{
 978:Middlewares/Third_Party/FreeRTOS/Source/timers.c **** 					mtCOVERAGE_TEST_MARKER();
 979:Middlewares/Third_Party/FreeRTOS/Source/timers.c **** 				}
 980:Middlewares/Third_Party/FreeRTOS/Source/timers.c **** 			}
 981:Middlewares/Third_Party/FreeRTOS/Source/timers.c **** 			#endif /* configQUEUE_REGISTRY_SIZE */
 982:Middlewares/Third_Party/FreeRTOS/Source/timers.c **** 		}
 983:Middlewares/Third_Party/FreeRTOS/Source/timers.c **** 		else
 984:Middlewares/Third_Party/FreeRTOS/Source/timers.c **** 		{
 985:Middlewares/Third_Party/FreeRTOS/Source/timers.c **** 			mtCOVERAGE_TEST_MARKER();
 217              		.loc 1 985 28 is_stmt 1 view .LVU49
 986:Middlewares/Third_Party/FreeRTOS/Source/timers.c **** 		}
 987:Middlewares/Third_Party/FreeRTOS/Source/timers.c **** 	}
 988:Middlewares/Third_Party/FreeRTOS/Source/timers.c **** 	taskEXIT_CRITICAL();
 218              		.loc 1 988 2 view .LVU50
 219 000e FFF7FEFF 		bl	vPortExitCritical
 220              	.LVL22:
 989:Middlewares/Third_Party/FreeRTOS/Source/timers.c **** }
 221              		.loc 1 989 1 is_stmt 0 view .LVU51
 222 0012 03B0     		add	sp, sp, #12
 223              	.LCFI3:
 224              		.cfi_remember_state
 225              		.cfi_def_cfa_offset 12
 226              		@ sp needed
 227 0014 30BD     		pop	{r4, r5, pc}
 228              	.L21:
 229              	.LCFI4:
 230              		.cfi_restore_state
 950:Middlewares/Third_Party/FreeRTOS/Source/timers.c **** 			vListInitialise( &xActiveTimerList2 );
 231              		.loc 1 950 4 is_stmt 1 view .LVU52
 232 0016 0F4D     		ldr	r5, .L22+4
 233 0018 2846     		mov	r0, r5
 234 001a FFF7FEFF 		bl	vListInitialise
 235              	.LVL23:
 951:Middlewares/Third_Party/FreeRTOS/Source/timers.c **** 			pxCurrentTimerList = &xActiveTimerList1;
 236              		.loc 1 951 4 view .LVU53
 237 001e 0E4C     		ldr	r4, .L22+8
 238 0020 2046     		mov	r0, r4
 239 0022 FFF7FEFF 		bl	vListInitialise
 240              	.LVL24:
 952:Middlewares/Third_Party/FreeRTOS/Source/timers.c **** 			pxOverflowTimerList = &xActiveTimerList2;
 241              		.loc 1 952 4 view .LVU54
 952:Middlewares/Third_Party/FreeRTOS/Source/timers.c **** 			pxOverflowTimerList = &xActiveTimerList2;
 242              		.loc 1 952 23 is_stmt 0 view .LVU55
 243 0026 0D4B     		ldr	r3, .L22+12
 244 0028 1D60     		str	r5, [r3]
 953:Middlewares/Third_Party/FreeRTOS/Source/timers.c **** 
 245              		.loc 1 953 4 is_stmt 1 view .LVU56
 953:Middlewares/Third_Party/FreeRTOS/Source/timers.c **** 
 246              		.loc 1 953 24 is_stmt 0 view .LVU57
ARM GAS  /tmp/ccApgZAB.s 			page 23


 247 002a 0D4B     		ldr	r3, .L22+16
 248 002c 1C60     		str	r4, [r3]
 249              	.LBB45:
 959:Middlewares/Third_Party/FreeRTOS/Source/timers.c **** 				static uint8_t ucStaticTimerQueueStorage[ ( size_t ) configTIMER_QUEUE_LENGTH * sizeof( DaemonT
 250              		.loc 1 959 5 is_stmt 1 view .LVU58
 960:Middlewares/Third_Party/FreeRTOS/Source/timers.c **** 
 251              		.loc 1 960 5 view .LVU59
 962:Middlewares/Third_Party/FreeRTOS/Source/timers.c **** 			}
 252              		.loc 1 962 5 view .LVU60
 962:Middlewares/Third_Party/FreeRTOS/Source/timers.c **** 			}
 253              		.loc 1 962 19 is_stmt 0 view .LVU61
 254 002e 0023     		movs	r3, #0
 255 0030 0093     		str	r3, [sp]
 256 0032 0C4B     		ldr	r3, .L22+20
 257 0034 0C4A     		ldr	r2, .L22+24
 258 0036 1021     		movs	r1, #16
 259 0038 0A20     		movs	r0, #10
 260 003a FFF7FEFF 		bl	xQueueGenericCreateStatic
 261              	.LVL25:
 962:Middlewares/Third_Party/FreeRTOS/Source/timers.c **** 			}
 262              		.loc 1 962 17 view .LVU62
 263 003e 044B     		ldr	r3, .L22
 264 0040 1860     		str	r0, [r3]
 265              	.LBE45:
 972:Middlewares/Third_Party/FreeRTOS/Source/timers.c **** 				{
 266              		.loc 1 972 5 is_stmt 1 view .LVU63
 972:Middlewares/Third_Party/FreeRTOS/Source/timers.c **** 				{
 267              		.loc 1 972 7 is_stmt 0 view .LVU64
 268 0042 0028     		cmp	r0, #0
 269 0044 E3D0     		beq	.L19
 974:Middlewares/Third_Party/FreeRTOS/Source/timers.c **** 				}
 270              		.loc 1 974 6 is_stmt 1 view .LVU65
 271 0046 0949     		ldr	r1, .L22+28
 272 0048 FFF7FEFF 		bl	vQueueAddToRegistry
 273              	.LVL26:
 274 004c DFE7     		b	.L19
 275              	.L23:
 276 004e 00BF     		.align	2
 277              	.L22:
 278 0050 00000000 		.word	.LANCHOR2
 279 0054 00000000 		.word	.LANCHOR3
 280 0058 00000000 		.word	.LANCHOR4
 281 005c 00000000 		.word	.LANCHOR0
 282 0060 00000000 		.word	.LANCHOR1
 283 0064 00000000 		.word	.LANCHOR5
 284 0068 00000000 		.word	.LANCHOR6
 285 006c 00000000 		.word	.LC0
 286              		.cfi_endproc
 287              	.LFE23:
 289              		.section	.text.prvInitialiseNewTimer,"ax",%progbits
 290              		.align	1
 291              		.syntax unified
 292              		.thumb
 293              		.thumb_func
 294              		.fpu fpv5-d16
 296              	prvInitialiseNewTimer:
 297              	.LVL27:
ARM GAS  /tmp/ccApgZAB.s 			page 24


 298              	.LFB7:
 355:Middlewares/Third_Party/FreeRTOS/Source/timers.c **** 	/* 0 is not a valid value for xTimerPeriodInTicks. */
 299              		.loc 1 355 1 view -0
 300              		.cfi_startproc
 301              		@ args = 8, pretend = 0, frame = 0
 302              		@ frame_needed = 0, uses_anonymous_args = 0
 355:Middlewares/Third_Party/FreeRTOS/Source/timers.c **** 	/* 0 is not a valid value for xTimerPeriodInTicks. */
 303              		.loc 1 355 1 is_stmt 0 view .LVU67
 304 0000 2DE9F041 		push	{r4, r5, r6, r7, r8, lr}
 305              	.LCFI5:
 306              		.cfi_def_cfa_offset 24
 307              		.cfi_offset 4, -24
 308              		.cfi_offset 5, -20
 309              		.cfi_offset 6, -16
 310              		.cfi_offset 7, -12
 311              		.cfi_offset 8, -8
 312              		.cfi_offset 14, -4
 313 0004 079C     		ldr	r4, [sp, #28]
 357:Middlewares/Third_Party/FreeRTOS/Source/timers.c **** 
 314              		.loc 1 357 2 is_stmt 1 view .LVU68
 315 0006 41B9     		cbnz	r1, .L25
 357:Middlewares/Third_Party/FreeRTOS/Source/timers.c **** 
 316              		.loc 1 357 2 view .LVU69
 317              	.LBB46:
 318              	.LBI46:
 319              		.file 2 "Middlewares/Third_Party/FreeRTOS/Source/portable/GCC/ARM_CM4F/portmacro.h"
   1:Middlewares/Third_Party/FreeRTOS/Source/portable/GCC/ARM_CM4F/portmacro.h **** /*
   2:Middlewares/Third_Party/FreeRTOS/Source/portable/GCC/ARM_CM4F/portmacro.h ****  * FreeRTOS Kernel V10.3.1
   3:Middlewares/Third_Party/FreeRTOS/Source/portable/GCC/ARM_CM4F/portmacro.h ****  * Copyright (C) 2020 Amazon.com, Inc. or its affiliates.  All Rights Reserved.
   4:Middlewares/Third_Party/FreeRTOS/Source/portable/GCC/ARM_CM4F/portmacro.h ****  *
   5:Middlewares/Third_Party/FreeRTOS/Source/portable/GCC/ARM_CM4F/portmacro.h ****  * Permission is hereby granted, free of charge, to any person obtaining a copy of
   6:Middlewares/Third_Party/FreeRTOS/Source/portable/GCC/ARM_CM4F/portmacro.h ****  * this software and associated documentation files (the "Software"), to deal in
   7:Middlewares/Third_Party/FreeRTOS/Source/portable/GCC/ARM_CM4F/portmacro.h ****  * the Software without restriction, including without limitation the rights to
   8:Middlewares/Third_Party/FreeRTOS/Source/portable/GCC/ARM_CM4F/portmacro.h ****  * use, copy, modify, merge, publish, distribute, sublicense, and/or sell copies of
   9:Middlewares/Third_Party/FreeRTOS/Source/portable/GCC/ARM_CM4F/portmacro.h ****  * the Software, and to permit persons to whom the Software is furnished to do so,
  10:Middlewares/Third_Party/FreeRTOS/Source/portable/GCC/ARM_CM4F/portmacro.h ****  * subject to the following conditions:
  11:Middlewares/Third_Party/FreeRTOS/Source/portable/GCC/ARM_CM4F/portmacro.h ****  *
  12:Middlewares/Third_Party/FreeRTOS/Source/portable/GCC/ARM_CM4F/portmacro.h ****  * The above copyright notice and this permission notice shall be included in all
  13:Middlewares/Third_Party/FreeRTOS/Source/portable/GCC/ARM_CM4F/portmacro.h ****  * copies or substantial portions of the Software.
  14:Middlewares/Third_Party/FreeRTOS/Source/portable/GCC/ARM_CM4F/portmacro.h ****  *
  15:Middlewares/Third_Party/FreeRTOS/Source/portable/GCC/ARM_CM4F/portmacro.h ****  * THE SOFTWARE IS PROVIDED "AS IS", WITHOUT WARRANTY OF ANY KIND, EXPRESS OR
  16:Middlewares/Third_Party/FreeRTOS/Source/portable/GCC/ARM_CM4F/portmacro.h ****  * IMPLIED, INCLUDING BUT NOT LIMITED TO THE WARRANTIES OF MERCHANTABILITY, FITNESS
  17:Middlewares/Third_Party/FreeRTOS/Source/portable/GCC/ARM_CM4F/portmacro.h ****  * FOR A PARTICULAR PURPOSE AND NONINFRINGEMENT. IN NO EVENT SHALL THE AUTHORS OR
  18:Middlewares/Third_Party/FreeRTOS/Source/portable/GCC/ARM_CM4F/portmacro.h ****  * COPYRIGHT HOLDERS BE LIABLE FOR ANY CLAIM, DAMAGES OR OTHER LIABILITY, WHETHER
  19:Middlewares/Third_Party/FreeRTOS/Source/portable/GCC/ARM_CM4F/portmacro.h ****  * IN AN ACTION OF CONTRACT, TORT OR OTHERWISE, ARISING FROM, OUT OF OR IN
  20:Middlewares/Third_Party/FreeRTOS/Source/portable/GCC/ARM_CM4F/portmacro.h ****  * CONNECTION WITH THE SOFTWARE OR THE USE OR OTHER DEALINGS IN THE SOFTWARE.
  21:Middlewares/Third_Party/FreeRTOS/Source/portable/GCC/ARM_CM4F/portmacro.h ****  *
  22:Middlewares/Third_Party/FreeRTOS/Source/portable/GCC/ARM_CM4F/portmacro.h ****  * http://www.FreeRTOS.org
  23:Middlewares/Third_Party/FreeRTOS/Source/portable/GCC/ARM_CM4F/portmacro.h ****  * http://aws.amazon.com/freertos
  24:Middlewares/Third_Party/FreeRTOS/Source/portable/GCC/ARM_CM4F/portmacro.h ****  *
  25:Middlewares/Third_Party/FreeRTOS/Source/portable/GCC/ARM_CM4F/portmacro.h ****  * 1 tab == 4 spaces!
  26:Middlewares/Third_Party/FreeRTOS/Source/portable/GCC/ARM_CM4F/portmacro.h ****  */
  27:Middlewares/Third_Party/FreeRTOS/Source/portable/GCC/ARM_CM4F/portmacro.h **** 
  28:Middlewares/Third_Party/FreeRTOS/Source/portable/GCC/ARM_CM4F/portmacro.h **** 
  29:Middlewares/Third_Party/FreeRTOS/Source/portable/GCC/ARM_CM4F/portmacro.h **** #ifndef PORTMACRO_H
  30:Middlewares/Third_Party/FreeRTOS/Source/portable/GCC/ARM_CM4F/portmacro.h **** #define PORTMACRO_H
  31:Middlewares/Third_Party/FreeRTOS/Source/portable/GCC/ARM_CM4F/portmacro.h **** 
ARM GAS  /tmp/ccApgZAB.s 			page 25


  32:Middlewares/Third_Party/FreeRTOS/Source/portable/GCC/ARM_CM4F/portmacro.h **** #ifdef __cplusplus
  33:Middlewares/Third_Party/FreeRTOS/Source/portable/GCC/ARM_CM4F/portmacro.h **** extern "C" {
  34:Middlewares/Third_Party/FreeRTOS/Source/portable/GCC/ARM_CM4F/portmacro.h **** #endif
  35:Middlewares/Third_Party/FreeRTOS/Source/portable/GCC/ARM_CM4F/portmacro.h **** 
  36:Middlewares/Third_Party/FreeRTOS/Source/portable/GCC/ARM_CM4F/portmacro.h **** /*-----------------------------------------------------------
  37:Middlewares/Third_Party/FreeRTOS/Source/portable/GCC/ARM_CM4F/portmacro.h ****  * Port specific definitions.
  38:Middlewares/Third_Party/FreeRTOS/Source/portable/GCC/ARM_CM4F/portmacro.h ****  *
  39:Middlewares/Third_Party/FreeRTOS/Source/portable/GCC/ARM_CM4F/portmacro.h ****  * The settings in this file configure FreeRTOS correctly for the
  40:Middlewares/Third_Party/FreeRTOS/Source/portable/GCC/ARM_CM4F/portmacro.h ****  * given hardware and compiler.
  41:Middlewares/Third_Party/FreeRTOS/Source/portable/GCC/ARM_CM4F/portmacro.h ****  *
  42:Middlewares/Third_Party/FreeRTOS/Source/portable/GCC/ARM_CM4F/portmacro.h ****  * These settings should not be altered.
  43:Middlewares/Third_Party/FreeRTOS/Source/portable/GCC/ARM_CM4F/portmacro.h ****  *-----------------------------------------------------------
  44:Middlewares/Third_Party/FreeRTOS/Source/portable/GCC/ARM_CM4F/portmacro.h ****  */
  45:Middlewares/Third_Party/FreeRTOS/Source/portable/GCC/ARM_CM4F/portmacro.h **** 
  46:Middlewares/Third_Party/FreeRTOS/Source/portable/GCC/ARM_CM4F/portmacro.h **** /* Type definitions. */
  47:Middlewares/Third_Party/FreeRTOS/Source/portable/GCC/ARM_CM4F/portmacro.h **** #define portCHAR		char
  48:Middlewares/Third_Party/FreeRTOS/Source/portable/GCC/ARM_CM4F/portmacro.h **** #define portFLOAT		float
  49:Middlewares/Third_Party/FreeRTOS/Source/portable/GCC/ARM_CM4F/portmacro.h **** #define portDOUBLE		double
  50:Middlewares/Third_Party/FreeRTOS/Source/portable/GCC/ARM_CM4F/portmacro.h **** #define portLONG		long
  51:Middlewares/Third_Party/FreeRTOS/Source/portable/GCC/ARM_CM4F/portmacro.h **** #define portSHORT		short
  52:Middlewares/Third_Party/FreeRTOS/Source/portable/GCC/ARM_CM4F/portmacro.h **** #define portSTACK_TYPE	uint32_t
  53:Middlewares/Third_Party/FreeRTOS/Source/portable/GCC/ARM_CM4F/portmacro.h **** #define portBASE_TYPE	long
  54:Middlewares/Third_Party/FreeRTOS/Source/portable/GCC/ARM_CM4F/portmacro.h **** 
  55:Middlewares/Third_Party/FreeRTOS/Source/portable/GCC/ARM_CM4F/portmacro.h **** typedef portSTACK_TYPE StackType_t;
  56:Middlewares/Third_Party/FreeRTOS/Source/portable/GCC/ARM_CM4F/portmacro.h **** typedef long BaseType_t;
  57:Middlewares/Third_Party/FreeRTOS/Source/portable/GCC/ARM_CM4F/portmacro.h **** typedef unsigned long UBaseType_t;
  58:Middlewares/Third_Party/FreeRTOS/Source/portable/GCC/ARM_CM4F/portmacro.h **** 
  59:Middlewares/Third_Party/FreeRTOS/Source/portable/GCC/ARM_CM4F/portmacro.h **** #if( configUSE_16_BIT_TICKS == 1 )
  60:Middlewares/Third_Party/FreeRTOS/Source/portable/GCC/ARM_CM4F/portmacro.h **** 	typedef uint16_t TickType_t;
  61:Middlewares/Third_Party/FreeRTOS/Source/portable/GCC/ARM_CM4F/portmacro.h **** 	#define portMAX_DELAY ( TickType_t ) 0xffff
  62:Middlewares/Third_Party/FreeRTOS/Source/portable/GCC/ARM_CM4F/portmacro.h **** #else
  63:Middlewares/Third_Party/FreeRTOS/Source/portable/GCC/ARM_CM4F/portmacro.h **** 	typedef uint32_t TickType_t;
  64:Middlewares/Third_Party/FreeRTOS/Source/portable/GCC/ARM_CM4F/portmacro.h **** 	#define portMAX_DELAY ( TickType_t ) 0xffffffffUL
  65:Middlewares/Third_Party/FreeRTOS/Source/portable/GCC/ARM_CM4F/portmacro.h **** 
  66:Middlewares/Third_Party/FreeRTOS/Source/portable/GCC/ARM_CM4F/portmacro.h **** 	/* 32-bit tick type on a 32-bit architecture, so reads of the tick count do
  67:Middlewares/Third_Party/FreeRTOS/Source/portable/GCC/ARM_CM4F/portmacro.h **** 	not need to be guarded with a critical section. */
  68:Middlewares/Third_Party/FreeRTOS/Source/portable/GCC/ARM_CM4F/portmacro.h **** 	#define portTICK_TYPE_IS_ATOMIC 1
  69:Middlewares/Third_Party/FreeRTOS/Source/portable/GCC/ARM_CM4F/portmacro.h **** #endif
  70:Middlewares/Third_Party/FreeRTOS/Source/portable/GCC/ARM_CM4F/portmacro.h **** /*-----------------------------------------------------------*/
  71:Middlewares/Third_Party/FreeRTOS/Source/portable/GCC/ARM_CM4F/portmacro.h **** 
  72:Middlewares/Third_Party/FreeRTOS/Source/portable/GCC/ARM_CM4F/portmacro.h **** /* Architecture specifics. */
  73:Middlewares/Third_Party/FreeRTOS/Source/portable/GCC/ARM_CM4F/portmacro.h **** #define portSTACK_GROWTH			( -1 )
  74:Middlewares/Third_Party/FreeRTOS/Source/portable/GCC/ARM_CM4F/portmacro.h **** #define portTICK_PERIOD_MS			( ( TickType_t ) 1000 / configTICK_RATE_HZ )
  75:Middlewares/Third_Party/FreeRTOS/Source/portable/GCC/ARM_CM4F/portmacro.h **** #define portBYTE_ALIGNMENT			8
  76:Middlewares/Third_Party/FreeRTOS/Source/portable/GCC/ARM_CM4F/portmacro.h **** /*-----------------------------------------------------------*/
  77:Middlewares/Third_Party/FreeRTOS/Source/portable/GCC/ARM_CM4F/portmacro.h **** 
  78:Middlewares/Third_Party/FreeRTOS/Source/portable/GCC/ARM_CM4F/portmacro.h **** /* Scheduler utilities. */
  79:Middlewares/Third_Party/FreeRTOS/Source/portable/GCC/ARM_CM4F/portmacro.h **** #define portYIELD() 															\
  80:Middlewares/Third_Party/FreeRTOS/Source/portable/GCC/ARM_CM4F/portmacro.h **** {																				\
  81:Middlewares/Third_Party/FreeRTOS/Source/portable/GCC/ARM_CM4F/portmacro.h **** 	/* Set a PendSV to request a context switch. */								\
  82:Middlewares/Third_Party/FreeRTOS/Source/portable/GCC/ARM_CM4F/portmacro.h **** 	portNVIC_INT_CTRL_REG = portNVIC_PENDSVSET_BIT;								\
  83:Middlewares/Third_Party/FreeRTOS/Source/portable/GCC/ARM_CM4F/portmacro.h **** 																				\
  84:Middlewares/Third_Party/FreeRTOS/Source/portable/GCC/ARM_CM4F/portmacro.h **** 	/* Barriers are normally not required but do ensure the code is completely	\
  85:Middlewares/Third_Party/FreeRTOS/Source/portable/GCC/ARM_CM4F/portmacro.h **** 	within the specified behaviour for the architecture. */						\
  86:Middlewares/Third_Party/FreeRTOS/Source/portable/GCC/ARM_CM4F/portmacro.h **** 	__asm volatile( "dsb" ::: "memory" );										\
  87:Middlewares/Third_Party/FreeRTOS/Source/portable/GCC/ARM_CM4F/portmacro.h **** 	__asm volatile( "isb" );													\
  88:Middlewares/Third_Party/FreeRTOS/Source/portable/GCC/ARM_CM4F/portmacro.h **** }
ARM GAS  /tmp/ccApgZAB.s 			page 26


  89:Middlewares/Third_Party/FreeRTOS/Source/portable/GCC/ARM_CM4F/portmacro.h **** 
  90:Middlewares/Third_Party/FreeRTOS/Source/portable/GCC/ARM_CM4F/portmacro.h **** #define portNVIC_INT_CTRL_REG		( * ( ( volatile uint32_t * ) 0xe000ed04 ) )
  91:Middlewares/Third_Party/FreeRTOS/Source/portable/GCC/ARM_CM4F/portmacro.h **** #define portNVIC_PENDSVSET_BIT		( 1UL << 28UL )
  92:Middlewares/Third_Party/FreeRTOS/Source/portable/GCC/ARM_CM4F/portmacro.h **** #define portEND_SWITCHING_ISR( xSwitchRequired ) if( xSwitchRequired != pdFALSE ) portYIELD()
  93:Middlewares/Third_Party/FreeRTOS/Source/portable/GCC/ARM_CM4F/portmacro.h **** #define portYIELD_FROM_ISR( x ) portEND_SWITCHING_ISR( x )
  94:Middlewares/Third_Party/FreeRTOS/Source/portable/GCC/ARM_CM4F/portmacro.h **** /*-----------------------------------------------------------*/
  95:Middlewares/Third_Party/FreeRTOS/Source/portable/GCC/ARM_CM4F/portmacro.h **** 
  96:Middlewares/Third_Party/FreeRTOS/Source/portable/GCC/ARM_CM4F/portmacro.h **** /* Critical section management. */
  97:Middlewares/Third_Party/FreeRTOS/Source/portable/GCC/ARM_CM4F/portmacro.h **** extern void vPortEnterCritical( void );
  98:Middlewares/Third_Party/FreeRTOS/Source/portable/GCC/ARM_CM4F/portmacro.h **** extern void vPortExitCritical( void );
  99:Middlewares/Third_Party/FreeRTOS/Source/portable/GCC/ARM_CM4F/portmacro.h **** #define portSET_INTERRUPT_MASK_FROM_ISR()		ulPortRaiseBASEPRI()
 100:Middlewares/Third_Party/FreeRTOS/Source/portable/GCC/ARM_CM4F/portmacro.h **** #define portCLEAR_INTERRUPT_MASK_FROM_ISR(x)	vPortSetBASEPRI(x)
 101:Middlewares/Third_Party/FreeRTOS/Source/portable/GCC/ARM_CM4F/portmacro.h **** #define portDISABLE_INTERRUPTS()				vPortRaiseBASEPRI()
 102:Middlewares/Third_Party/FreeRTOS/Source/portable/GCC/ARM_CM4F/portmacro.h **** #define portENABLE_INTERRUPTS()					vPortSetBASEPRI(0)
 103:Middlewares/Third_Party/FreeRTOS/Source/portable/GCC/ARM_CM4F/portmacro.h **** #define portENTER_CRITICAL()					vPortEnterCritical()
 104:Middlewares/Third_Party/FreeRTOS/Source/portable/GCC/ARM_CM4F/portmacro.h **** #define portEXIT_CRITICAL()						vPortExitCritical()
 105:Middlewares/Third_Party/FreeRTOS/Source/portable/GCC/ARM_CM4F/portmacro.h **** 
 106:Middlewares/Third_Party/FreeRTOS/Source/portable/GCC/ARM_CM4F/portmacro.h **** /*-----------------------------------------------------------*/
 107:Middlewares/Third_Party/FreeRTOS/Source/portable/GCC/ARM_CM4F/portmacro.h **** 
 108:Middlewares/Third_Party/FreeRTOS/Source/portable/GCC/ARM_CM4F/portmacro.h **** /* Task function macros as described on the FreeRTOS.org WEB site.  These are
 109:Middlewares/Third_Party/FreeRTOS/Source/portable/GCC/ARM_CM4F/portmacro.h **** not necessary for to use this port.  They are defined so the common demo files
 110:Middlewares/Third_Party/FreeRTOS/Source/portable/GCC/ARM_CM4F/portmacro.h **** (which build with all the ports) will build. */
 111:Middlewares/Third_Party/FreeRTOS/Source/portable/GCC/ARM_CM4F/portmacro.h **** #define portTASK_FUNCTION_PROTO( vFunction, pvParameters ) void vFunction( void *pvParameters )
 112:Middlewares/Third_Party/FreeRTOS/Source/portable/GCC/ARM_CM4F/portmacro.h **** #define portTASK_FUNCTION( vFunction, pvParameters ) void vFunction( void *pvParameters )
 113:Middlewares/Third_Party/FreeRTOS/Source/portable/GCC/ARM_CM4F/portmacro.h **** /*-----------------------------------------------------------*/
 114:Middlewares/Third_Party/FreeRTOS/Source/portable/GCC/ARM_CM4F/portmacro.h **** 
 115:Middlewares/Third_Party/FreeRTOS/Source/portable/GCC/ARM_CM4F/portmacro.h **** /* Tickless idle/low power functionality. */
 116:Middlewares/Third_Party/FreeRTOS/Source/portable/GCC/ARM_CM4F/portmacro.h **** #ifndef portSUPPRESS_TICKS_AND_SLEEP
 117:Middlewares/Third_Party/FreeRTOS/Source/portable/GCC/ARM_CM4F/portmacro.h **** 	extern void vPortSuppressTicksAndSleep( TickType_t xExpectedIdleTime );
 118:Middlewares/Third_Party/FreeRTOS/Source/portable/GCC/ARM_CM4F/portmacro.h **** 	#define portSUPPRESS_TICKS_AND_SLEEP( xExpectedIdleTime ) vPortSuppressTicksAndSleep( xExpectedIdl
 119:Middlewares/Third_Party/FreeRTOS/Source/portable/GCC/ARM_CM4F/portmacro.h **** #endif
 120:Middlewares/Third_Party/FreeRTOS/Source/portable/GCC/ARM_CM4F/portmacro.h **** /*-----------------------------------------------------------*/
 121:Middlewares/Third_Party/FreeRTOS/Source/portable/GCC/ARM_CM4F/portmacro.h **** 
 122:Middlewares/Third_Party/FreeRTOS/Source/portable/GCC/ARM_CM4F/portmacro.h **** /* Architecture specific optimisations. */
 123:Middlewares/Third_Party/FreeRTOS/Source/portable/GCC/ARM_CM4F/portmacro.h **** #ifndef configUSE_PORT_OPTIMISED_TASK_SELECTION
 124:Middlewares/Third_Party/FreeRTOS/Source/portable/GCC/ARM_CM4F/portmacro.h **** 	#define configUSE_PORT_OPTIMISED_TASK_SELECTION 1
 125:Middlewares/Third_Party/FreeRTOS/Source/portable/GCC/ARM_CM4F/portmacro.h **** #endif
 126:Middlewares/Third_Party/FreeRTOS/Source/portable/GCC/ARM_CM4F/portmacro.h **** 
 127:Middlewares/Third_Party/FreeRTOS/Source/portable/GCC/ARM_CM4F/portmacro.h **** #if configUSE_PORT_OPTIMISED_TASK_SELECTION == 1
 128:Middlewares/Third_Party/FreeRTOS/Source/portable/GCC/ARM_CM4F/portmacro.h **** 
 129:Middlewares/Third_Party/FreeRTOS/Source/portable/GCC/ARM_CM4F/portmacro.h **** 	/* Generic helper function. */
 130:Middlewares/Third_Party/FreeRTOS/Source/portable/GCC/ARM_CM4F/portmacro.h **** 	__attribute__( ( always_inline ) ) static inline uint8_t ucPortCountLeadingZeros( uint32_t ulBitma
 131:Middlewares/Third_Party/FreeRTOS/Source/portable/GCC/ARM_CM4F/portmacro.h **** 	{
 132:Middlewares/Third_Party/FreeRTOS/Source/portable/GCC/ARM_CM4F/portmacro.h **** 	uint8_t ucReturn;
 133:Middlewares/Third_Party/FreeRTOS/Source/portable/GCC/ARM_CM4F/portmacro.h **** 
 134:Middlewares/Third_Party/FreeRTOS/Source/portable/GCC/ARM_CM4F/portmacro.h **** 		__asm volatile ( "clz %0, %1" : "=r" ( ucReturn ) : "r" ( ulBitmap ) : "memory" );
 135:Middlewares/Third_Party/FreeRTOS/Source/portable/GCC/ARM_CM4F/portmacro.h **** 		return ucReturn;
 136:Middlewares/Third_Party/FreeRTOS/Source/portable/GCC/ARM_CM4F/portmacro.h **** 	}
 137:Middlewares/Third_Party/FreeRTOS/Source/portable/GCC/ARM_CM4F/portmacro.h **** 
 138:Middlewares/Third_Party/FreeRTOS/Source/portable/GCC/ARM_CM4F/portmacro.h **** 	/* Check the configuration. */
 139:Middlewares/Third_Party/FreeRTOS/Source/portable/GCC/ARM_CM4F/portmacro.h **** 	#if( configMAX_PRIORITIES > 32 )
 140:Middlewares/Third_Party/FreeRTOS/Source/portable/GCC/ARM_CM4F/portmacro.h **** 		#error configUSE_PORT_OPTIMISED_TASK_SELECTION can only be set to 1 when configMAX_PRIORITIES is 
 141:Middlewares/Third_Party/FreeRTOS/Source/portable/GCC/ARM_CM4F/portmacro.h **** 	#endif
 142:Middlewares/Third_Party/FreeRTOS/Source/portable/GCC/ARM_CM4F/portmacro.h **** 
 143:Middlewares/Third_Party/FreeRTOS/Source/portable/GCC/ARM_CM4F/portmacro.h **** 	/* Store/clear the ready priorities in a bit map. */
 144:Middlewares/Third_Party/FreeRTOS/Source/portable/GCC/ARM_CM4F/portmacro.h **** 	#define portRECORD_READY_PRIORITY( uxPriority, uxReadyPriorities ) ( uxReadyPriorities ) |= ( 1UL 
 145:Middlewares/Third_Party/FreeRTOS/Source/portable/GCC/ARM_CM4F/portmacro.h **** 	#define portRESET_READY_PRIORITY( uxPriority, uxReadyPriorities ) ( uxReadyPriorities ) &= ~( 1UL 
ARM GAS  /tmp/ccApgZAB.s 			page 27


 146:Middlewares/Third_Party/FreeRTOS/Source/portable/GCC/ARM_CM4F/portmacro.h **** 
 147:Middlewares/Third_Party/FreeRTOS/Source/portable/GCC/ARM_CM4F/portmacro.h **** 	/*-----------------------------------------------------------*/
 148:Middlewares/Third_Party/FreeRTOS/Source/portable/GCC/ARM_CM4F/portmacro.h **** 
 149:Middlewares/Third_Party/FreeRTOS/Source/portable/GCC/ARM_CM4F/portmacro.h **** 	#define portGET_HIGHEST_PRIORITY( uxTopPriority, uxReadyPriorities ) uxTopPriority = ( 31UL - ( ui
 150:Middlewares/Third_Party/FreeRTOS/Source/portable/GCC/ARM_CM4F/portmacro.h **** 
 151:Middlewares/Third_Party/FreeRTOS/Source/portable/GCC/ARM_CM4F/portmacro.h **** #endif /* configUSE_PORT_OPTIMISED_TASK_SELECTION */
 152:Middlewares/Third_Party/FreeRTOS/Source/portable/GCC/ARM_CM4F/portmacro.h **** 
 153:Middlewares/Third_Party/FreeRTOS/Source/portable/GCC/ARM_CM4F/portmacro.h **** /*-----------------------------------------------------------*/
 154:Middlewares/Third_Party/FreeRTOS/Source/portable/GCC/ARM_CM4F/portmacro.h **** 
 155:Middlewares/Third_Party/FreeRTOS/Source/portable/GCC/ARM_CM4F/portmacro.h **** #ifdef configASSERT
 156:Middlewares/Third_Party/FreeRTOS/Source/portable/GCC/ARM_CM4F/portmacro.h **** 	void vPortValidateInterruptPriority( void );
 157:Middlewares/Third_Party/FreeRTOS/Source/portable/GCC/ARM_CM4F/portmacro.h **** 	#define portASSERT_IF_INTERRUPT_PRIORITY_INVALID() 	vPortValidateInterruptPriority()
 158:Middlewares/Third_Party/FreeRTOS/Source/portable/GCC/ARM_CM4F/portmacro.h **** #endif
 159:Middlewares/Third_Party/FreeRTOS/Source/portable/GCC/ARM_CM4F/portmacro.h **** 
 160:Middlewares/Third_Party/FreeRTOS/Source/portable/GCC/ARM_CM4F/portmacro.h **** /* portNOP() is not required by this port. */
 161:Middlewares/Third_Party/FreeRTOS/Source/portable/GCC/ARM_CM4F/portmacro.h **** #define portNOP()
 162:Middlewares/Third_Party/FreeRTOS/Source/portable/GCC/ARM_CM4F/portmacro.h **** 
 163:Middlewares/Third_Party/FreeRTOS/Source/portable/GCC/ARM_CM4F/portmacro.h **** #define portINLINE	__inline
 164:Middlewares/Third_Party/FreeRTOS/Source/portable/GCC/ARM_CM4F/portmacro.h **** 
 165:Middlewares/Third_Party/FreeRTOS/Source/portable/GCC/ARM_CM4F/portmacro.h **** #ifndef portFORCE_INLINE
 166:Middlewares/Third_Party/FreeRTOS/Source/portable/GCC/ARM_CM4F/portmacro.h **** 	#define portFORCE_INLINE inline __attribute__(( always_inline))
 167:Middlewares/Third_Party/FreeRTOS/Source/portable/GCC/ARM_CM4F/portmacro.h **** #endif
 168:Middlewares/Third_Party/FreeRTOS/Source/portable/GCC/ARM_CM4F/portmacro.h **** 
 169:Middlewares/Third_Party/FreeRTOS/Source/portable/GCC/ARM_CM4F/portmacro.h **** portFORCE_INLINE static BaseType_t xPortIsInsideInterrupt( void )
 170:Middlewares/Third_Party/FreeRTOS/Source/portable/GCC/ARM_CM4F/portmacro.h **** {
 171:Middlewares/Third_Party/FreeRTOS/Source/portable/GCC/ARM_CM4F/portmacro.h **** uint32_t ulCurrentInterrupt;
 172:Middlewares/Third_Party/FreeRTOS/Source/portable/GCC/ARM_CM4F/portmacro.h **** BaseType_t xReturn;
 173:Middlewares/Third_Party/FreeRTOS/Source/portable/GCC/ARM_CM4F/portmacro.h **** 
 174:Middlewares/Third_Party/FreeRTOS/Source/portable/GCC/ARM_CM4F/portmacro.h **** 	/* Obtain the number of the currently executing interrupt. */
 175:Middlewares/Third_Party/FreeRTOS/Source/portable/GCC/ARM_CM4F/portmacro.h **** 	__asm volatile( "mrs %0, ipsr" : "=r"( ulCurrentInterrupt ) :: "memory" );
 176:Middlewares/Third_Party/FreeRTOS/Source/portable/GCC/ARM_CM4F/portmacro.h **** 
 177:Middlewares/Third_Party/FreeRTOS/Source/portable/GCC/ARM_CM4F/portmacro.h **** 	if( ulCurrentInterrupt == 0 )
 178:Middlewares/Third_Party/FreeRTOS/Source/portable/GCC/ARM_CM4F/portmacro.h **** 	{
 179:Middlewares/Third_Party/FreeRTOS/Source/portable/GCC/ARM_CM4F/portmacro.h **** 		xReturn = pdFALSE;
 180:Middlewares/Third_Party/FreeRTOS/Source/portable/GCC/ARM_CM4F/portmacro.h **** 	}
 181:Middlewares/Third_Party/FreeRTOS/Source/portable/GCC/ARM_CM4F/portmacro.h **** 	else
 182:Middlewares/Third_Party/FreeRTOS/Source/portable/GCC/ARM_CM4F/portmacro.h **** 	{
 183:Middlewares/Third_Party/FreeRTOS/Source/portable/GCC/ARM_CM4F/portmacro.h **** 		xReturn = pdTRUE;
 184:Middlewares/Third_Party/FreeRTOS/Source/portable/GCC/ARM_CM4F/portmacro.h **** 	}
 185:Middlewares/Third_Party/FreeRTOS/Source/portable/GCC/ARM_CM4F/portmacro.h **** 
 186:Middlewares/Third_Party/FreeRTOS/Source/portable/GCC/ARM_CM4F/portmacro.h **** 	return xReturn;
 187:Middlewares/Third_Party/FreeRTOS/Source/portable/GCC/ARM_CM4F/portmacro.h **** }
 188:Middlewares/Third_Party/FreeRTOS/Source/portable/GCC/ARM_CM4F/portmacro.h **** 
 189:Middlewares/Third_Party/FreeRTOS/Source/portable/GCC/ARM_CM4F/portmacro.h **** /*-----------------------------------------------------------*/
 190:Middlewares/Third_Party/FreeRTOS/Source/portable/GCC/ARM_CM4F/portmacro.h **** 
 191:Middlewares/Third_Party/FreeRTOS/Source/portable/GCC/ARM_CM4F/portmacro.h **** portFORCE_INLINE static void vPortRaiseBASEPRI( void )
 320              		.loc 2 191 30 view .LVU70
 321              	.LBB47:
 192:Middlewares/Third_Party/FreeRTOS/Source/portable/GCC/ARM_CM4F/portmacro.h **** {
 193:Middlewares/Third_Party/FreeRTOS/Source/portable/GCC/ARM_CM4F/portmacro.h **** uint32_t ulNewBASEPRI;
 322              		.loc 2 193 1 view .LVU71
 194:Middlewares/Third_Party/FreeRTOS/Source/portable/GCC/ARM_CM4F/portmacro.h **** 
 195:Middlewares/Third_Party/FreeRTOS/Source/portable/GCC/ARM_CM4F/portmacro.h **** 	__asm volatile
 323              		.loc 2 195 2 view .LVU72
 324              		.syntax unified
 325              	@ 195 "Middlewares/Third_Party/FreeRTOS/Source/portable/GCC/ARM_CM4F/portmacro.h" 1
 326 0008 4FF05003 			mov r3, #80												
ARM GAS  /tmp/ccApgZAB.s 			page 28


 327 000c 83F31188 		msr basepri, r3											
 328 0010 BFF36F8F 		isb														
 329 0014 BFF34F8F 		dsb														
 330              	
 331              	@ 0 "" 2
 332              	.LVL28:
 333              		.thumb
 334              		.syntax unified
 335              	.L26:
 336              		.loc 2 195 2 is_stmt 0 view .LVU73
 337              	.LBE47:
 338              	.LBE46:
 357:Middlewares/Third_Party/FreeRTOS/Source/timers.c **** 
 339              		.loc 1 357 2 is_stmt 1 discriminator 1 view .LVU74
 357:Middlewares/Third_Party/FreeRTOS/Source/timers.c **** 
 340              		.loc 1 357 2 discriminator 1 view .LVU75
 357:Middlewares/Third_Party/FreeRTOS/Source/timers.c **** 
 341              		.loc 1 357 2 discriminator 1 view .LVU76
 342 0018 FEE7     		b	.L26
 343              	.LVL29:
 344              	.L25:
 357:Middlewares/Third_Party/FreeRTOS/Source/timers.c **** 
 345              		.loc 1 357 2 is_stmt 0 discriminator 1 view .LVU77
 346 001a 0746     		mov	r7, r0
 347 001c 1546     		mov	r5, r2
 348 001e 1E46     		mov	r6, r3
 349 0020 8846     		mov	r8, r1
 357:Middlewares/Third_Party/FreeRTOS/Source/timers.c **** 
 350              		.loc 1 357 45 is_stmt 1 discriminator 2 view .LVU78
 359:Middlewares/Third_Party/FreeRTOS/Source/timers.c **** 	{
 351              		.loc 1 359 2 discriminator 2 view .LVU79
 359:Middlewares/Third_Party/FreeRTOS/Source/timers.c **** 	{
 352              		.loc 1 359 4 is_stmt 0 discriminator 2 view .LVU80
 353 0022 8CB1     		cbz	r4, .L24
 363:Middlewares/Third_Party/FreeRTOS/Source/timers.c **** 
 354              		.loc 1 363 3 is_stmt 1 view .LVU81
 355 0024 FFF7FEFF 		bl	prvCheckForValidListAndQueue
 356              	.LVL30:
 367:Middlewares/Third_Party/FreeRTOS/Source/timers.c **** 		pxNewTimer->xTimerPeriodInTicks = xTimerPeriodInTicks;
 357              		.loc 1 367 3 view .LVU82
 367:Middlewares/Third_Party/FreeRTOS/Source/timers.c **** 		pxNewTimer->xTimerPeriodInTicks = xTimerPeriodInTicks;
 358              		.loc 1 367 27 is_stmt 0 view .LVU83
 359 0028 2760     		str	r7, [r4]
 368:Middlewares/Third_Party/FreeRTOS/Source/timers.c **** 		pxNewTimer->pvTimerID = pvTimerID;
 360              		.loc 1 368 3 is_stmt 1 view .LVU84
 368:Middlewares/Third_Party/FreeRTOS/Source/timers.c **** 		pxNewTimer->pvTimerID = pvTimerID;
 361              		.loc 1 368 35 is_stmt 0 view .LVU85
 362 002a C4F81880 		str	r8, [r4, #24]
 369:Middlewares/Third_Party/FreeRTOS/Source/timers.c **** 		pxNewTimer->pxCallbackFunction = pxCallbackFunction;
 363              		.loc 1 369 3 is_stmt 1 view .LVU86
 369:Middlewares/Third_Party/FreeRTOS/Source/timers.c **** 		pxNewTimer->pxCallbackFunction = pxCallbackFunction;
 364              		.loc 1 369 25 is_stmt 0 view .LVU87
 365 002e E661     		str	r6, [r4, #28]
 370:Middlewares/Third_Party/FreeRTOS/Source/timers.c **** 		vListInitialiseItem( &( pxNewTimer->xTimerListItem ) );
 366              		.loc 1 370 3 is_stmt 1 view .LVU88
 370:Middlewares/Third_Party/FreeRTOS/Source/timers.c **** 		vListInitialiseItem( &( pxNewTimer->xTimerListItem ) );
 367              		.loc 1 370 34 is_stmt 0 view .LVU89
ARM GAS  /tmp/ccApgZAB.s 			page 29


 368 0030 069B     		ldr	r3, [sp, #24]
 369 0032 2362     		str	r3, [r4, #32]
 371:Middlewares/Third_Party/FreeRTOS/Source/timers.c **** 		if( uxAutoReload != pdFALSE )
 370              		.loc 1 371 3 is_stmt 1 view .LVU90
 371 0034 201D     		adds	r0, r4, #4
 372 0036 FFF7FEFF 		bl	vListInitialiseItem
 373              	.LVL31:
 372:Middlewares/Third_Party/FreeRTOS/Source/timers.c **** 		{
 374              		.loc 1 372 3 view .LVU91
 372:Middlewares/Third_Party/FreeRTOS/Source/timers.c **** 		{
 375              		.loc 1 372 5 is_stmt 0 view .LVU92
 376 003a 2DB1     		cbz	r5, .L24
 374:Middlewares/Third_Party/FreeRTOS/Source/timers.c **** 		}
 377              		.loc 1 374 4 is_stmt 1 view .LVU93
 374:Middlewares/Third_Party/FreeRTOS/Source/timers.c **** 		}
 378              		.loc 1 374 25 is_stmt 0 view .LVU94
 379 003c 94F82830 		ldrb	r3, [r4, #40]	@ zero_extendqisi2
 380 0040 43F00403 		orr	r3, r3, #4
 381 0044 84F82830 		strb	r3, [r4, #40]
 376:Middlewares/Third_Party/FreeRTOS/Source/timers.c **** 	}
 382              		.loc 1 376 34 is_stmt 1 view .LVU95
 383              	.L24:
 378:Middlewares/Third_Party/FreeRTOS/Source/timers.c **** /*-----------------------------------------------------------*/
 384              		.loc 1 378 1 is_stmt 0 view .LVU96
 385 0048 BDE8F081 		pop	{r4, r5, r6, r7, r8, pc}
 378:Middlewares/Third_Party/FreeRTOS/Source/timers.c **** /*-----------------------------------------------------------*/
 386              		.loc 1 378 1 view .LVU97
 387              		.cfi_endproc
 388              	.LFE7:
 390              		.section	.rodata.xTimerCreateTimerTask.str1.4,"aMS",%progbits,1
 391              		.align	2
 392              	.LC1:
 393 0000 546D7220 		.ascii	"Tmr Svc\000"
 393      53766300 
 394              		.section	.text.xTimerCreateTimerTask,"ax",%progbits
 395              		.align	1
 396              		.global	xTimerCreateTimerTask
 397              		.syntax unified
 398              		.thumb
 399              		.thumb_func
 400              		.fpu fpv5-d16
 402              	xTimerCreateTimerTask:
 403              	.LFB4:
 228:Middlewares/Third_Party/FreeRTOS/Source/timers.c **** BaseType_t xReturn = pdFAIL;
 404              		.loc 1 228 1 is_stmt 1 view -0
 405              		.cfi_startproc
 406              		@ args = 0, pretend = 0, frame = 16
 407              		@ frame_needed = 0, uses_anonymous_args = 0
 408 0000 10B5     		push	{r4, lr}
 409              	.LCFI6:
 410              		.cfi_def_cfa_offset 8
 411              		.cfi_offset 4, -8
 412              		.cfi_offset 14, -4
 413 0002 88B0     		sub	sp, sp, #32
 414              	.LCFI7:
 415              		.cfi_def_cfa_offset 40
 229:Middlewares/Third_Party/FreeRTOS/Source/timers.c **** 
ARM GAS  /tmp/ccApgZAB.s 			page 30


 416              		.loc 1 229 1 view .LVU99
 417              	.LVL32:
 235:Middlewares/Third_Party/FreeRTOS/Source/timers.c **** 
 418              		.loc 1 235 2 view .LVU100
 419 0004 FFF7FEFF 		bl	prvCheckForValidListAndQueue
 420              	.LVL33:
 237:Middlewares/Third_Party/FreeRTOS/Source/timers.c **** 	{
 421              		.loc 1 237 2 view .LVU101
 237:Middlewares/Third_Party/FreeRTOS/Source/timers.c **** 	{
 422              		.loc 1 237 18 is_stmt 0 view .LVU102
 423 0008 124B     		ldr	r3, .L35
 424 000a 1B68     		ldr	r3, [r3]
 237:Middlewares/Third_Party/FreeRTOS/Source/timers.c **** 	{
 425              		.loc 1 237 4 view .LVU103
 426 000c CBB1     		cbz	r3, .L30
 427              	.LBB48:
 241:Middlewares/Third_Party/FreeRTOS/Source/timers.c **** 			StackType_t *pxTimerTaskStackBuffer = NULL;
 428              		.loc 1 241 4 is_stmt 1 view .LVU104
 241:Middlewares/Third_Party/FreeRTOS/Source/timers.c **** 			StackType_t *pxTimerTaskStackBuffer = NULL;
 429              		.loc 1 241 18 is_stmt 0 view .LVU105
 430 000e 0024     		movs	r4, #0
 431 0010 0594     		str	r4, [sp, #20]
 242:Middlewares/Third_Party/FreeRTOS/Source/timers.c **** 			uint32_t ulTimerTaskStackSize;
 432              		.loc 1 242 4 is_stmt 1 view .LVU106
 242:Middlewares/Third_Party/FreeRTOS/Source/timers.c **** 			uint32_t ulTimerTaskStackSize;
 433              		.loc 1 242 17 is_stmt 0 view .LVU107
 434 0012 0694     		str	r4, [sp, #24]
 243:Middlewares/Third_Party/FreeRTOS/Source/timers.c **** 
 435              		.loc 1 243 4 is_stmt 1 view .LVU108
 245:Middlewares/Third_Party/FreeRTOS/Source/timers.c **** 			xTimerTaskHandle = xTaskCreateStatic(	prvTimerTask,
 436              		.loc 1 245 4 view .LVU109
 437 0014 07AA     		add	r2, sp, #28
 438 0016 06A9     		add	r1, sp, #24
 439 0018 05A8     		add	r0, sp, #20
 440 001a FFF7FEFF 		bl	vApplicationGetTimerTaskMemory
 441              	.LVL34:
 246:Middlewares/Third_Party/FreeRTOS/Source/timers.c **** 													configTIMER_SERVICE_TASK_NAME,
 442              		.loc 1 246 4 view .LVU110
 246:Middlewares/Third_Party/FreeRTOS/Source/timers.c **** 													configTIMER_SERVICE_TASK_NAME,
 443              		.loc 1 246 23 is_stmt 0 view .LVU111
 444 001e 059B     		ldr	r3, [sp, #20]
 445 0020 0293     		str	r3, [sp, #8]
 446 0022 069B     		ldr	r3, [sp, #24]
 447 0024 0193     		str	r3, [sp, #4]
 448 0026 0223     		movs	r3, #2
 449 0028 0093     		str	r3, [sp]
 450 002a 2346     		mov	r3, r4
 451 002c 079A     		ldr	r2, [sp, #28]
 452 002e 0A49     		ldr	r1, .L35+4
 453 0030 0A48     		ldr	r0, .L35+8
 454 0032 FFF7FEFF 		bl	xTaskCreateStatic
 455              	.LVL35:
 246:Middlewares/Third_Party/FreeRTOS/Source/timers.c **** 													configTIMER_SERVICE_TASK_NAME,
 456              		.loc 1 246 21 view .LVU112
 457 0036 0A4A     		ldr	r2, .L35+12
 458 0038 1060     		str	r0, [r2]
 254:Middlewares/Third_Party/FreeRTOS/Source/timers.c **** 			{
ARM GAS  /tmp/ccApgZAB.s 			page 31


 459              		.loc 1 254 4 is_stmt 1 view .LVU113
 254:Middlewares/Third_Party/FreeRTOS/Source/timers.c **** 			{
 460              		.loc 1 254 6 is_stmt 0 view .LVU114
 461 003a 10B1     		cbz	r0, .L30
 462              	.LBE48:
 277:Middlewares/Third_Party/FreeRTOS/Source/timers.c **** /*-----------------------------------------------------------*/
 463              		.loc 1 277 1 view .LVU115
 464 003c 0120     		movs	r0, #1
 465 003e 08B0     		add	sp, sp, #32
 466              	.LCFI8:
 467              		.cfi_remember_state
 468              		.cfi_def_cfa_offset 8
 469              		@ sp needed
 470 0040 10BD     		pop	{r4, pc}
 471              	.L30:
 472              	.LCFI9:
 473              		.cfi_restore_state
 474              	.LVL36:
 275:Middlewares/Third_Party/FreeRTOS/Source/timers.c **** 	return xReturn;
 475              		.loc 1 275 2 is_stmt 1 view .LVU116
 476              	.LBB49:
 477              	.LBI49:
 191:Middlewares/Third_Party/FreeRTOS/Source/portable/GCC/ARM_CM4F/portmacro.h **** {
 478              		.loc 2 191 30 view .LVU117
 479              	.LBB50:
 193:Middlewares/Third_Party/FreeRTOS/Source/portable/GCC/ARM_CM4F/portmacro.h **** 
 480              		.loc 2 193 1 view .LVU118
 481              		.loc 2 195 2 view .LVU119
 482              		.syntax unified
 483              	@ 195 "Middlewares/Third_Party/FreeRTOS/Source/portable/GCC/ARM_CM4F/portmacro.h" 1
 484 0042 4FF05003 			mov r3, #80												
 485 0046 83F31188 		msr basepri, r3											
 486 004a BFF36F8F 		isb														
 487 004e BFF34F8F 		dsb														
 488              	
 489              	@ 0 "" 2
 490              	.LVL37:
 491              		.thumb
 492              		.syntax unified
 493              	.L32:
 494              		.loc 2 195 2 is_stmt 0 view .LVU120
 495              	.LBE50:
 496              	.LBE49:
 275:Middlewares/Third_Party/FreeRTOS/Source/timers.c **** 	return xReturn;
 497              		.loc 1 275 2 is_stmt 1 discriminator 1 view .LVU121
 275:Middlewares/Third_Party/FreeRTOS/Source/timers.c **** 	return xReturn;
 498              		.loc 1 275 2 discriminator 1 view .LVU122
 275:Middlewares/Third_Party/FreeRTOS/Source/timers.c **** 	return xReturn;
 499              		.loc 1 275 2 discriminator 1 view .LVU123
 500 0052 FEE7     		b	.L32
 501              	.L36:
 502              		.align	2
 503              	.L35:
 504 0054 00000000 		.word	.LANCHOR2
 505 0058 00000000 		.word	.LC1
 506 005c 00000000 		.word	prvTimerTask
 507 0060 00000000 		.word	.LANCHOR7
ARM GAS  /tmp/ccApgZAB.s 			page 32


 508              		.cfi_endproc
 509              	.LFE4:
 511              		.section	.text.xTimerCreate,"ax",%progbits
 512              		.align	1
 513              		.global	xTimerCreate
 514              		.syntax unified
 515              		.thumb
 516              		.thumb_func
 517              		.fpu fpv5-d16
 519              	xTimerCreate:
 520              	.LVL38:
 521              	.LFB5:
 287:Middlewares/Third_Party/FreeRTOS/Source/timers.c **** 	Timer_t *pxNewTimer;
 522              		.loc 1 287 2 view -0
 523              		.cfi_startproc
 524              		@ args = 4, pretend = 0, frame = 0
 525              		@ frame_needed = 0, uses_anonymous_args = 0
 287:Middlewares/Third_Party/FreeRTOS/Source/timers.c **** 	Timer_t *pxNewTimer;
 526              		.loc 1 287 2 is_stmt 0 view .LVU125
 527 0000 2DE9F041 		push	{r4, r5, r6, r7, r8, lr}
 528              	.LCFI10:
 529              		.cfi_def_cfa_offset 24
 530              		.cfi_offset 4, -24
 531              		.cfi_offset 5, -20
 532              		.cfi_offset 6, -16
 533              		.cfi_offset 7, -12
 534              		.cfi_offset 8, -8
 535              		.cfi_offset 14, -4
 536 0004 82B0     		sub	sp, sp, #8
 537              	.LCFI11:
 538              		.cfi_def_cfa_offset 32
 539 0006 0446     		mov	r4, r0
 540 0008 8846     		mov	r8, r1
 541 000a 1746     		mov	r7, r2
 542 000c 1D46     		mov	r5, r3
 288:Middlewares/Third_Party/FreeRTOS/Source/timers.c **** 
 543              		.loc 1 288 2 is_stmt 1 view .LVU126
 290:Middlewares/Third_Party/FreeRTOS/Source/timers.c **** 
 544              		.loc 1 290 3 view .LVU127
 290:Middlewares/Third_Party/FreeRTOS/Source/timers.c **** 
 545              		.loc 1 290 30 is_stmt 0 view .LVU128
 546 000e 2C20     		movs	r0, #44
 547              	.LVL39:
 290:Middlewares/Third_Party/FreeRTOS/Source/timers.c **** 
 548              		.loc 1 290 30 view .LVU129
 549 0010 FFF7FEFF 		bl	pvPortMalloc
 550              	.LVL40:
 292:Middlewares/Third_Party/FreeRTOS/Source/timers.c **** 		{
 551              		.loc 1 292 3 is_stmt 1 view .LVU130
 292:Middlewares/Third_Party/FreeRTOS/Source/timers.c **** 		{
 552              		.loc 1 292 5 is_stmt 0 view .LVU131
 553 0014 0646     		mov	r6, r0
 554 0016 58B1     		cbz	r0, .L37
 297:Middlewares/Third_Party/FreeRTOS/Source/timers.c **** 			prvInitialiseNewTimer( pcTimerName, xTimerPeriodInTicks, uxAutoReload, pvTimerID, pxCallbackFunc
 555              		.loc 1 297 4 is_stmt 1 view .LVU132
 297:Middlewares/Third_Party/FreeRTOS/Source/timers.c **** 			prvInitialiseNewTimer( pcTimerName, xTimerPeriodInTicks, uxAutoReload, pvTimerID, pxCallbackFunc
 556              		.loc 1 297 25 is_stmt 0 view .LVU133
ARM GAS  /tmp/ccApgZAB.s 			page 33


 557 0018 0023     		movs	r3, #0
 558 001a 80F82830 		strb	r3, [r0, #40]
 298:Middlewares/Third_Party/FreeRTOS/Source/timers.c **** 		}
 559              		.loc 1 298 4 is_stmt 1 view .LVU134
 560 001e 0190     		str	r0, [sp, #4]
 561 0020 089B     		ldr	r3, [sp, #32]
 562 0022 0093     		str	r3, [sp]
 563 0024 2B46     		mov	r3, r5
 564 0026 3A46     		mov	r2, r7
 565 0028 4146     		mov	r1, r8
 566 002a 2046     		mov	r0, r4
 567              	.LVL41:
 298:Middlewares/Third_Party/FreeRTOS/Source/timers.c **** 		}
 568              		.loc 1 298 4 is_stmt 0 view .LVU135
 569 002c FFF7FEFF 		bl	prvInitialiseNewTimer
 570              	.LVL42:
 301:Middlewares/Third_Party/FreeRTOS/Source/timers.c **** 	}
 571              		.loc 1 301 3 is_stmt 1 view .LVU136
 572              	.L37:
 302:Middlewares/Third_Party/FreeRTOS/Source/timers.c **** 
 573              		.loc 1 302 2 is_stmt 0 view .LVU137
 574 0030 3046     		mov	r0, r6
 575 0032 02B0     		add	sp, sp, #8
 576              	.LCFI12:
 577              		.cfi_def_cfa_offset 24
 578              		@ sp needed
 579 0034 BDE8F081 		pop	{r4, r5, r6, r7, r8, pc}
 302:Middlewares/Third_Party/FreeRTOS/Source/timers.c **** 
 580              		.loc 1 302 2 view .LVU138
 581              		.cfi_endproc
 582              	.LFE5:
 584              		.section	.text.xTimerCreateStatic,"ax",%progbits
 585              		.align	1
 586              		.global	xTimerCreateStatic
 587              		.syntax unified
 588              		.thumb
 589              		.thumb_func
 590              		.fpu fpv5-d16
 592              	xTimerCreateStatic:
 593              	.LVL43:
 594              	.LFB6:
 315:Middlewares/Third_Party/FreeRTOS/Source/timers.c **** 	Timer_t *pxNewTimer;
 595              		.loc 1 315 2 is_stmt 1 view -0
 596              		.cfi_startproc
 597              		@ args = 8, pretend = 0, frame = 8
 598              		@ frame_needed = 0, uses_anonymous_args = 0
 315:Middlewares/Third_Party/FreeRTOS/Source/timers.c **** 	Timer_t *pxNewTimer;
 599              		.loc 1 315 2 is_stmt 0 view .LVU140
 600 0000 30B5     		push	{r4, r5, lr}
 601              	.LCFI13:
 602              		.cfi_def_cfa_offset 12
 603              		.cfi_offset 4, -12
 604              		.cfi_offset 5, -8
 605              		.cfi_offset 14, -4
 606 0002 85B0     		sub	sp, sp, #20
 607              	.LCFI14:
 608              		.cfi_def_cfa_offset 32
ARM GAS  /tmp/ccApgZAB.s 			page 34


 609 0004 099C     		ldr	r4, [sp, #36]
 316:Middlewares/Third_Party/FreeRTOS/Source/timers.c **** 
 610              		.loc 1 316 2 is_stmt 1 view .LVU141
 611              	.LBB51:
 323:Middlewares/Third_Party/FreeRTOS/Source/timers.c **** 			configASSERT( xSize == sizeof( Timer_t ) );
 612              		.loc 1 323 4 view .LVU142
 323:Middlewares/Third_Party/FreeRTOS/Source/timers.c **** 			configASSERT( xSize == sizeof( Timer_t ) );
 613              		.loc 1 323 20 is_stmt 0 view .LVU143
 614 0006 2C25     		movs	r5, #44
 615 0008 0395     		str	r5, [sp, #12]
 324:Middlewares/Third_Party/FreeRTOS/Source/timers.c **** 			( void ) xSize; /* Keeps lint quiet when configASSERT() is not defined. */
 616              		.loc 1 324 4 is_stmt 1 view .LVU144
 617 000a 039D     		ldr	r5, [sp, #12]
 618 000c 2C2D     		cmp	r5, #44
 619 000e 08D0     		beq	.L41
 324:Middlewares/Third_Party/FreeRTOS/Source/timers.c **** 			( void ) xSize; /* Keeps lint quiet when configASSERT() is not defined. */
 620              		.loc 1 324 4 view .LVU145
 621              	.LBB52:
 622              	.LBI52:
 191:Middlewares/Third_Party/FreeRTOS/Source/portable/GCC/ARM_CM4F/portmacro.h **** {
 623              		.loc 2 191 30 view .LVU146
 624              	.LBB53:
 193:Middlewares/Third_Party/FreeRTOS/Source/portable/GCC/ARM_CM4F/portmacro.h **** 
 625              		.loc 2 193 1 view .LVU147
 626              		.loc 2 195 2 view .LVU148
 627              		.syntax unified
 628              	@ 195 "Middlewares/Third_Party/FreeRTOS/Source/portable/GCC/ARM_CM4F/portmacro.h" 1
 629 0010 4FF05003 			mov r3, #80												
 630 0014 83F31188 		msr basepri, r3											
 631 0018 BFF36F8F 		isb														
 632 001c BFF34F8F 		dsb														
 633              	
 634              	@ 0 "" 2
 635              	.LVL44:
 636              		.thumb
 637              		.syntax unified
 638              	.L42:
 639              		.loc 2 195 2 is_stmt 0 view .LVU149
 640              	.LBE53:
 641              	.LBE52:
 324:Middlewares/Third_Party/FreeRTOS/Source/timers.c **** 			( void ) xSize; /* Keeps lint quiet when configASSERT() is not defined. */
 642              		.loc 1 324 4 is_stmt 1 discriminator 1 view .LVU150
 324:Middlewares/Third_Party/FreeRTOS/Source/timers.c **** 			( void ) xSize; /* Keeps lint quiet when configASSERT() is not defined. */
 643              		.loc 1 324 4 discriminator 1 view .LVU151
 324:Middlewares/Third_Party/FreeRTOS/Source/timers.c **** 			( void ) xSize; /* Keeps lint quiet when configASSERT() is not defined. */
 644              		.loc 1 324 4 discriminator 1 view .LVU152
 645 0020 FEE7     		b	.L42
 646              	.LVL45:
 647              	.L41:
 324:Middlewares/Third_Party/FreeRTOS/Source/timers.c **** 			( void ) xSize; /* Keeps lint quiet when configASSERT() is not defined. */
 648              		.loc 1 324 46 discriminator 2 view .LVU153
 325:Middlewares/Third_Party/FreeRTOS/Source/timers.c **** 		}
 649              		.loc 1 325 4 discriminator 2 view .LVU154
 650 0022 039D     		ldr	r5, [sp, #12]
 651              	.LBE51:
 330:Middlewares/Third_Party/FreeRTOS/Source/timers.c **** 		pxNewTimer = ( Timer_t * ) pxTimerBuffer; /*lint !e740 !e9087 StaticTimer_t is a pointer to a Tim
 652              		.loc 1 330 3 discriminator 2 view .LVU155
ARM GAS  /tmp/ccApgZAB.s 			page 35


 653 0024 54B1     		cbz	r4, .L46
 330:Middlewares/Third_Party/FreeRTOS/Source/timers.c **** 		pxNewTimer = ( Timer_t * ) pxTimerBuffer; /*lint !e740 !e9087 StaticTimer_t is a pointer to a Tim
 654              		.loc 1 330 32 view .LVU156
 331:Middlewares/Third_Party/FreeRTOS/Source/timers.c **** 
 655              		.loc 1 331 3 view .LVU157
 656              	.LVL46:
 333:Middlewares/Third_Party/FreeRTOS/Source/timers.c **** 		{
 657              		.loc 1 333 3 view .LVU158
 338:Middlewares/Third_Party/FreeRTOS/Source/timers.c **** 
 658              		.loc 1 338 4 view .LVU159
 338:Middlewares/Third_Party/FreeRTOS/Source/timers.c **** 
 659              		.loc 1 338 25 is_stmt 0 view .LVU160
 660 0026 0225     		movs	r5, #2
 661 0028 84F82850 		strb	r5, [r4, #40]
 340:Middlewares/Third_Party/FreeRTOS/Source/timers.c **** 		}
 662              		.loc 1 340 4 is_stmt 1 view .LVU161
 663 002c 0194     		str	r4, [sp, #4]
 664 002e 089D     		ldr	r5, [sp, #32]
 665 0030 0095     		str	r5, [sp]
 666 0032 FFF7FEFF 		bl	prvInitialiseNewTimer
 667              	.LVL47:
 343:Middlewares/Third_Party/FreeRTOS/Source/timers.c **** 	}
 668              		.loc 1 343 3 view .LVU162
 344:Middlewares/Third_Party/FreeRTOS/Source/timers.c **** 
 669              		.loc 1 344 2 is_stmt 0 view .LVU163
 670 0036 2046     		mov	r0, r4
 671 0038 05B0     		add	sp, sp, #20
 672              	.LCFI15:
 673              		.cfi_remember_state
 674              		.cfi_def_cfa_offset 12
 675              		@ sp needed
 676 003a 30BD     		pop	{r4, r5, pc}
 677              	.LVL48:
 678              	.L46:
 679              	.LCFI16:
 680              		.cfi_restore_state
 330:Middlewares/Third_Party/FreeRTOS/Source/timers.c **** 		pxNewTimer = ( Timer_t * ) pxTimerBuffer; /*lint !e740 !e9087 StaticTimer_t is a pointer to a Tim
 681              		.loc 1 330 3 is_stmt 1 view .LVU164
 682              	.LBB54:
 683              	.LBI54:
 191:Middlewares/Third_Party/FreeRTOS/Source/portable/GCC/ARM_CM4F/portmacro.h **** {
 684              		.loc 2 191 30 view .LVU165
 685              	.LBB55:
 193:Middlewares/Third_Party/FreeRTOS/Source/portable/GCC/ARM_CM4F/portmacro.h **** 
 686              		.loc 2 193 1 view .LVU166
 687              		.loc 2 195 2 view .LVU167
 688              		.syntax unified
 689              	@ 195 "Middlewares/Third_Party/FreeRTOS/Source/portable/GCC/ARM_CM4F/portmacro.h" 1
 690 003c 4FF05003 			mov r3, #80												
 691 0040 83F31188 		msr basepri, r3											
 692 0044 BFF36F8F 		isb														
 693 0048 BFF34F8F 		dsb														
 694              	
 695              	@ 0 "" 2
 696              	.LVL49:
 697              		.thumb
 698              		.syntax unified
ARM GAS  /tmp/ccApgZAB.s 			page 36


 699              	.L44:
 700              		.loc 2 195 2 is_stmt 0 view .LVU168
 701              	.LBE55:
 702              	.LBE54:
 330:Middlewares/Third_Party/FreeRTOS/Source/timers.c **** 		pxNewTimer = ( Timer_t * ) pxTimerBuffer; /*lint !e740 !e9087 StaticTimer_t is a pointer to a Tim
 703              		.loc 1 330 3 is_stmt 1 discriminator 2 view .LVU169
 330:Middlewares/Third_Party/FreeRTOS/Source/timers.c **** 		pxNewTimer = ( Timer_t * ) pxTimerBuffer; /*lint !e740 !e9087 StaticTimer_t is a pointer to a Tim
 704              		.loc 1 330 3 discriminator 2 view .LVU170
 330:Middlewares/Third_Party/FreeRTOS/Source/timers.c **** 		pxNewTimer = ( Timer_t * ) pxTimerBuffer; /*lint !e740 !e9087 StaticTimer_t is a pointer to a Tim
 705              		.loc 1 330 3 discriminator 2 view .LVU171
 706 004c FEE7     		b	.L44
 707              		.cfi_endproc
 708              	.LFE6:
 710              		.section	.text.xTimerGenericCommand,"ax",%progbits
 711              		.align	1
 712              		.global	xTimerGenericCommand
 713              		.syntax unified
 714              		.thumb
 715              		.thumb_func
 716              		.fpu fpv5-d16
 718              	xTimerGenericCommand:
 719              	.LVL50:
 720              	.LFB8:
 382:Middlewares/Third_Party/FreeRTOS/Source/timers.c **** BaseType_t xReturn = pdFAIL;
 721              		.loc 1 382 1 view -0
 722              		.cfi_startproc
 723              		@ args = 4, pretend = 0, frame = 16
 724              		@ frame_needed = 0, uses_anonymous_args = 0
 383:Middlewares/Third_Party/FreeRTOS/Source/timers.c **** DaemonTaskMessage_t xMessage;
 725              		.loc 1 383 1 view .LVU173
 384:Middlewares/Third_Party/FreeRTOS/Source/timers.c **** 
 726              		.loc 1 384 1 view .LVU174
 386:Middlewares/Third_Party/FreeRTOS/Source/timers.c **** 
 727              		.loc 1 386 2 view .LVU175
 728 0000 C0B1     		cbz	r0, .L56
 382:Middlewares/Third_Party/FreeRTOS/Source/timers.c **** BaseType_t xReturn = pdFAIL;
 729              		.loc 1 382 1 is_stmt 0 discriminator 2 view .LVU176
 730 0002 10B5     		push	{r4, lr}
 731              	.LCFI17:
 732              		.cfi_def_cfa_offset 8
 733              		.cfi_offset 4, -8
 734              		.cfi_offset 14, -4
 735 0004 84B0     		sub	sp, sp, #16
 736              	.LCFI18:
 737              		.cfi_def_cfa_offset 24
 738 0006 1446     		mov	r4, r2
 739 0008 1A46     		mov	r2, r3
 740              	.LVL51:
 382:Middlewares/Third_Party/FreeRTOS/Source/timers.c **** BaseType_t xReturn = pdFAIL;
 741              		.loc 1 382 1 discriminator 2 view .LVU177
 742 000a 0346     		mov	r3, r0
 743              	.LVL52:
 386:Middlewares/Third_Party/FreeRTOS/Source/timers.c **** 
 744              		.loc 1 386 24 is_stmt 1 discriminator 2 view .LVU178
 390:Middlewares/Third_Party/FreeRTOS/Source/timers.c **** 	{
 745              		.loc 1 390 2 discriminator 2 view .LVU179
 390:Middlewares/Third_Party/FreeRTOS/Source/timers.c **** 	{
ARM GAS  /tmp/ccApgZAB.s 			page 37


 746              		.loc 1 390 18 is_stmt 0 discriminator 2 view .LVU180
 747 000c 1648     		ldr	r0, .L58
 748              	.LVL53:
 390:Middlewares/Third_Party/FreeRTOS/Source/timers.c **** 	{
 749              		.loc 1 390 18 discriminator 2 view .LVU181
 750 000e 0068     		ldr	r0, [r0]
 390:Middlewares/Third_Party/FreeRTOS/Source/timers.c **** 	{
 751              		.loc 1 390 4 discriminator 2 view .LVU182
 752 0010 38B3     		cbz	r0, .L53
 393:Middlewares/Third_Party/FreeRTOS/Source/timers.c **** 		xMessage.u.xTimerParameters.xMessageValue = xOptionalValue;
 753              		.loc 1 393 3 is_stmt 1 view .LVU183
 393:Middlewares/Third_Party/FreeRTOS/Source/timers.c **** 		xMessage.u.xTimerParameters.xMessageValue = xOptionalValue;
 754              		.loc 1 393 23 is_stmt 0 view .LVU184
 755 0012 0091     		str	r1, [sp]
 394:Middlewares/Third_Party/FreeRTOS/Source/timers.c **** 		xMessage.u.xTimerParameters.pxTimer = xTimer;
 756              		.loc 1 394 3 is_stmt 1 view .LVU185
 394:Middlewares/Third_Party/FreeRTOS/Source/timers.c **** 		xMessage.u.xTimerParameters.pxTimer = xTimer;
 757              		.loc 1 394 45 is_stmt 0 view .LVU186
 758 0014 0194     		str	r4, [sp, #4]
 395:Middlewares/Third_Party/FreeRTOS/Source/timers.c **** 
 759              		.loc 1 395 3 is_stmt 1 view .LVU187
 395:Middlewares/Third_Party/FreeRTOS/Source/timers.c **** 
 760              		.loc 1 395 39 is_stmt 0 view .LVU188
 761 0016 0293     		str	r3, [sp, #8]
 397:Middlewares/Third_Party/FreeRTOS/Source/timers.c **** 		{
 762              		.loc 1 397 3 is_stmt 1 view .LVU189
 397:Middlewares/Third_Party/FreeRTOS/Source/timers.c **** 		{
 763              		.loc 1 397 5 is_stmt 0 view .LVU190
 764 0018 0529     		cmp	r1, #5
 765 001a 1CDC     		bgt	.L51
 399:Middlewares/Third_Party/FreeRTOS/Source/timers.c **** 			{
 766              		.loc 1 399 4 is_stmt 1 view .LVU191
 399:Middlewares/Third_Party/FreeRTOS/Source/timers.c **** 			{
 767              		.loc 1 399 8 is_stmt 0 view .LVU192
 768 001c FFF7FEFF 		bl	xTaskGetSchedulerState
 769              	.LVL54:
 399:Middlewares/Third_Party/FreeRTOS/Source/timers.c **** 			{
 770              		.loc 1 399 6 view .LVU193
 771 0020 0228     		cmp	r0, #2
 772 0022 10D0     		beq	.L57
 405:Middlewares/Third_Party/FreeRTOS/Source/timers.c **** 			}
 773              		.loc 1 405 5 is_stmt 1 view .LVU194
 405:Middlewares/Third_Party/FreeRTOS/Source/timers.c **** 			}
 774              		.loc 1 405 15 is_stmt 0 view .LVU195
 775 0024 0023     		movs	r3, #0
 776 0026 1A46     		mov	r2, r3
 777 0028 6946     		mov	r1, sp
 778 002a 0F48     		ldr	r0, .L58
 779 002c 0068     		ldr	r0, [r0]
 780 002e FFF7FEFF 		bl	xQueueGenericSend
 781              	.LVL55:
 405:Middlewares/Third_Party/FreeRTOS/Source/timers.c **** 			}
 782              		.loc 1 405 15 view .LVU196
 783 0032 14E0     		b	.L47
 784              	.LVL56:
 785              	.L56:
 786              	.LCFI19:
ARM GAS  /tmp/ccApgZAB.s 			page 38


 787              		.cfi_def_cfa_offset 0
 788              		.cfi_restore 4
 789              		.cfi_restore 14
 386:Middlewares/Third_Party/FreeRTOS/Source/timers.c **** 
 790              		.loc 1 386 2 is_stmt 1 view .LVU197
 791              	.LBB56:
 792              	.LBI56:
 191:Middlewares/Third_Party/FreeRTOS/Source/portable/GCC/ARM_CM4F/portmacro.h **** {
 793              		.loc 2 191 30 view .LVU198
 794              	.LBB57:
 193:Middlewares/Third_Party/FreeRTOS/Source/portable/GCC/ARM_CM4F/portmacro.h **** 
 795              		.loc 2 193 1 view .LVU199
 796              		.loc 2 195 2 view .LVU200
 797              		.syntax unified
 798              	@ 195 "Middlewares/Third_Party/FreeRTOS/Source/portable/GCC/ARM_CM4F/portmacro.h" 1
 799 0034 4FF05003 			mov r3, #80												
 800 0038 83F31188 		msr basepri, r3											
 801 003c BFF36F8F 		isb														
 802 0040 BFF34F8F 		dsb														
 803              	
 804              	@ 0 "" 2
 805              	.LVL57:
 806              		.thumb
 807              		.syntax unified
 808              	.L49:
 809              		.loc 2 195 2 is_stmt 0 view .LVU201
 810              	.LBE57:
 811              	.LBE56:
 386:Middlewares/Third_Party/FreeRTOS/Source/timers.c **** 
 812              		.loc 1 386 2 is_stmt 1 discriminator 1 view .LVU202
 386:Middlewares/Third_Party/FreeRTOS/Source/timers.c **** 
 813              		.loc 1 386 2 discriminator 1 view .LVU203
 386:Middlewares/Third_Party/FreeRTOS/Source/timers.c **** 
 814              		.loc 1 386 2 discriminator 1 view .LVU204
 815 0044 FEE7     		b	.L49
 816              	.LVL58:
 817              	.L57:
 818              	.LCFI20:
 819              		.cfi_def_cfa_offset 24
 820              		.cfi_offset 4, -8
 821              		.cfi_offset 14, -4
 401:Middlewares/Third_Party/FreeRTOS/Source/timers.c **** 			}
 822              		.loc 1 401 5 view .LVU205
 401:Middlewares/Third_Party/FreeRTOS/Source/timers.c **** 			}
 823              		.loc 1 401 15 is_stmt 0 view .LVU206
 824 0046 0023     		movs	r3, #0
 825 0048 069A     		ldr	r2, [sp, #24]
 826 004a 6946     		mov	r1, sp
 827 004c 0648     		ldr	r0, .L58
 828 004e 0068     		ldr	r0, [r0]
 829 0050 FFF7FEFF 		bl	xQueueGenericSend
 830              	.LVL59:
 401:Middlewares/Third_Party/FreeRTOS/Source/timers.c **** 			}
 831              		.loc 1 401 15 view .LVU207
 832 0054 03E0     		b	.L47
 833              	.LVL60:
 834              	.L51:
ARM GAS  /tmp/ccApgZAB.s 			page 39


 410:Middlewares/Third_Party/FreeRTOS/Source/timers.c **** 		}
 835              		.loc 1 410 4 is_stmt 1 view .LVU208
 410:Middlewares/Third_Party/FreeRTOS/Source/timers.c **** 		}
 836              		.loc 1 410 14 is_stmt 0 view .LVU209
 837 0056 0023     		movs	r3, #0
 838              	.LVL61:
 410:Middlewares/Third_Party/FreeRTOS/Source/timers.c **** 		}
 839              		.loc 1 410 14 view .LVU210
 840 0058 6946     		mov	r1, sp
 841              	.LVL62:
 410:Middlewares/Third_Party/FreeRTOS/Source/timers.c **** 		}
 842              		.loc 1 410 14 view .LVU211
 843 005a FFF7FEFF 		bl	xQueueGenericSendFromISR
 844              	.LVL63:
 845              	.L47:
 421:Middlewares/Third_Party/FreeRTOS/Source/timers.c **** /*-----------------------------------------------------------*/
 846              		.loc 1 421 1 view .LVU212
 847 005e 04B0     		add	sp, sp, #16
 848              	.LCFI21:
 849              		.cfi_remember_state
 850              		.cfi_def_cfa_offset 8
 851              		@ sp needed
 852 0060 10BD     		pop	{r4, pc}
 853              	.LVL64:
 854              	.L53:
 855              	.LCFI22:
 856              		.cfi_restore_state
 383:Middlewares/Third_Party/FreeRTOS/Source/timers.c **** DaemonTaskMessage_t xMessage;
 857              		.loc 1 383 12 view .LVU213
 858 0062 0020     		movs	r0, #0
 417:Middlewares/Third_Party/FreeRTOS/Source/timers.c **** 	}
 859              		.loc 1 417 27 is_stmt 1 view .LVU214
 420:Middlewares/Third_Party/FreeRTOS/Source/timers.c **** }
 860              		.loc 1 420 2 view .LVU215
 420:Middlewares/Third_Party/FreeRTOS/Source/timers.c **** }
 861              		.loc 1 420 9 is_stmt 0 view .LVU216
 862 0064 FBE7     		b	.L47
 863              	.L59:
 864 0066 00BF     		.align	2
 865              	.L58:
 866 0068 00000000 		.word	.LANCHOR2
 867              		.cfi_endproc
 868              	.LFE8:
 870              		.section	.text.prvSwitchTimerLists,"ax",%progbits
 871              		.align	1
 872              		.syntax unified
 873              		.thumb
 874              		.thumb_func
 875              		.fpu fpv5-d16
 877              	prvSwitchTimerLists:
 878              	.LFB22:
 883:Middlewares/Third_Party/FreeRTOS/Source/timers.c **** TickType_t xNextExpireTime, xReloadTime;
 879              		.loc 1 883 1 is_stmt 1 view -0
 880              		.cfi_startproc
 881              		@ args = 0, pretend = 0, frame = 0
 882              		@ frame_needed = 0, uses_anonymous_args = 0
 883 0000 70B5     		push	{r4, r5, r6, lr}
ARM GAS  /tmp/ccApgZAB.s 			page 40


 884              	.LCFI23:
 885              		.cfi_def_cfa_offset 16
 886              		.cfi_offset 4, -16
 887              		.cfi_offset 5, -12
 888              		.cfi_offset 6, -8
 889              		.cfi_offset 14, -4
 890 0002 82B0     		sub	sp, sp, #8
 891              	.LCFI24:
 892              		.cfi_def_cfa_offset 24
 884:Middlewares/Third_Party/FreeRTOS/Source/timers.c **** List_t *pxTemp;
 893              		.loc 1 884 1 view .LVU218
 885:Middlewares/Third_Party/FreeRTOS/Source/timers.c **** Timer_t *pxTimer;
 894              		.loc 1 885 1 view .LVU219
 886:Middlewares/Third_Party/FreeRTOS/Source/timers.c **** BaseType_t xResult;
 895              		.loc 1 886 1 view .LVU220
 887:Middlewares/Third_Party/FreeRTOS/Source/timers.c **** 
 896              		.loc 1 887 1 view .LVU221
 893:Middlewares/Third_Party/FreeRTOS/Source/timers.c **** 	{
 897              		.loc 1 893 2 view .LVU222
 898              	.L62:
 931:Middlewares/Third_Party/FreeRTOS/Source/timers.c **** 		}
 899              		.loc 1 931 28 view .LVU223
 893:Middlewares/Third_Party/FreeRTOS/Source/timers.c **** 	{
 900              		.loc 1 893 7 view .LVU224
 893:Middlewares/Third_Party/FreeRTOS/Source/timers.c **** 	{
 901              		.loc 1 893 9 is_stmt 0 view .LVU225
 902 0004 1B4B     		ldr	r3, .L69
 903 0006 1B68     		ldr	r3, [r3]
 904 0008 1A68     		ldr	r2, [r3]
 893:Middlewares/Third_Party/FreeRTOS/Source/timers.c **** 	{
 905              		.loc 1 893 7 view .LVU226
 906 000a 62B3     		cbz	r2, .L68
 895:Middlewares/Third_Party/FreeRTOS/Source/timers.c **** 
 907              		.loc 1 895 3 is_stmt 1 view .LVU227
 895:Middlewares/Third_Party/FreeRTOS/Source/timers.c **** 
 908              		.loc 1 895 21 is_stmt 0 view .LVU228
 909 000c DB68     		ldr	r3, [r3, #12]
 895:Middlewares/Third_Party/FreeRTOS/Source/timers.c **** 
 910              		.loc 1 895 19 view .LVU229
 911 000e 1E68     		ldr	r6, [r3]
 912              	.LVL65:
 898:Middlewares/Third_Party/FreeRTOS/Source/timers.c **** 		( void ) uxListRemove( &( pxTimer->xTimerListItem ) );
 913              		.loc 1 898 3 is_stmt 1 view .LVU230
 898:Middlewares/Third_Party/FreeRTOS/Source/timers.c **** 		( void ) uxListRemove( &( pxTimer->xTimerListItem ) );
 914              		.loc 1 898 11 is_stmt 0 view .LVU231
 915 0010 DC68     		ldr	r4, [r3, #12]
 916              	.LVL66:
 899:Middlewares/Third_Party/FreeRTOS/Source/timers.c **** 		traceTIMER_EXPIRED( pxTimer );
 917              		.loc 1 899 3 is_stmt 1 view .LVU232
 899:Middlewares/Third_Party/FreeRTOS/Source/timers.c **** 		traceTIMER_EXPIRED( pxTimer );
 918              		.loc 1 899 12 is_stmt 0 view .LVU233
 919 0012 251D     		adds	r5, r4, #4
 920 0014 2846     		mov	r0, r5
 921 0016 FFF7FEFF 		bl	uxListRemove
 922              	.LVL67:
 900:Middlewares/Third_Party/FreeRTOS/Source/timers.c **** 
 923              		.loc 1 900 32 is_stmt 1 view .LVU234
ARM GAS  /tmp/ccApgZAB.s 			page 41


 905:Middlewares/Third_Party/FreeRTOS/Source/timers.c **** 
 924              		.loc 1 905 3 view .LVU235
 905:Middlewares/Third_Party/FreeRTOS/Source/timers.c **** 
 925              		.loc 1 905 10 is_stmt 0 view .LVU236
 926 001a 236A     		ldr	r3, [r4, #32]
 905:Middlewares/Third_Party/FreeRTOS/Source/timers.c **** 
 927              		.loc 1 905 3 view .LVU237
 928 001c 2046     		mov	r0, r4
 929 001e 9847     		blx	r3
 930              	.LVL68:
 907:Middlewares/Third_Party/FreeRTOS/Source/timers.c **** 		{
 931              		.loc 1 907 3 is_stmt 1 view .LVU238
 907:Middlewares/Third_Party/FreeRTOS/Source/timers.c **** 		{
 932              		.loc 1 907 16 is_stmt 0 view .LVU239
 933 0020 94F82830 		ldrb	r3, [r4, #40]	@ zero_extendqisi2
 907:Middlewares/Third_Party/FreeRTOS/Source/timers.c **** 		{
 934              		.loc 1 907 5 view .LVU240
 935 0024 13F0040F 		tst	r3, #4
 936 0028 ECD0     		beq	.L62
 915:Middlewares/Third_Party/FreeRTOS/Source/timers.c **** 			if( xReloadTime > xNextExpireTime )
 937              		.loc 1 915 4 is_stmt 1 view .LVU241
 915:Middlewares/Third_Party/FreeRTOS/Source/timers.c **** 			if( xReloadTime > xNextExpireTime )
 938              		.loc 1 915 45 is_stmt 0 view .LVU242
 939 002a A369     		ldr	r3, [r4, #24]
 915:Middlewares/Third_Party/FreeRTOS/Source/timers.c **** 			if( xReloadTime > xNextExpireTime )
 940              		.loc 1 915 16 view .LVU243
 941 002c 3344     		add	r3, r3, r6
 942              	.LVL69:
 916:Middlewares/Third_Party/FreeRTOS/Source/timers.c **** 			{
 943              		.loc 1 916 4 is_stmt 1 view .LVU244
 916:Middlewares/Third_Party/FreeRTOS/Source/timers.c **** 			{
 944              		.loc 1 916 6 is_stmt 0 view .LVU245
 945 002e 9E42     		cmp	r6, r3
 946 0030 07D2     		bcs	.L63
 918:Middlewares/Third_Party/FreeRTOS/Source/timers.c **** 				listSET_LIST_ITEM_OWNER( &( pxTimer->xTimerListItem ), pxTimer );
 947              		.loc 1 918 5 is_stmt 1 view .LVU246
 948 0032 6360     		str	r3, [r4, #4]
 919:Middlewares/Third_Party/FreeRTOS/Source/timers.c **** 				vListInsert( pxCurrentTimerList, &( pxTimer->xTimerListItem ) );
 949              		.loc 1 919 5 view .LVU247
 950 0034 2461     		str	r4, [r4, #16]
 920:Middlewares/Third_Party/FreeRTOS/Source/timers.c **** 			}
 951              		.loc 1 920 5 view .LVU248
 952 0036 2946     		mov	r1, r5
 953 0038 0E4B     		ldr	r3, .L69
 954              	.LVL70:
 920:Middlewares/Third_Party/FreeRTOS/Source/timers.c **** 			}
 955              		.loc 1 920 5 is_stmt 0 view .LVU249
 956 003a 1868     		ldr	r0, [r3]
 957 003c FFF7FEFF 		bl	vListInsert
 958              	.LVL71:
 920:Middlewares/Third_Party/FreeRTOS/Source/timers.c **** 			}
 959              		.loc 1 920 5 view .LVU250
 960 0040 E0E7     		b	.L62
 961              	.LVL72:
 962              	.L63:
 924:Middlewares/Third_Party/FreeRTOS/Source/timers.c **** 				configASSERT( xResult );
 963              		.loc 1 924 5 is_stmt 1 view .LVU251
ARM GAS  /tmp/ccApgZAB.s 			page 42


 924:Middlewares/Third_Party/FreeRTOS/Source/timers.c **** 				configASSERT( xResult );
 964              		.loc 1 924 15 is_stmt 0 view .LVU252
 965 0042 0021     		movs	r1, #0
 966 0044 0091     		str	r1, [sp]
 967 0046 0B46     		mov	r3, r1
 968              	.LVL73:
 924:Middlewares/Third_Party/FreeRTOS/Source/timers.c **** 				configASSERT( xResult );
 969              		.loc 1 924 15 view .LVU253
 970 0048 3246     		mov	r2, r6
 971 004a 2046     		mov	r0, r4
 972 004c FFF7FEFF 		bl	xTimerGenericCommand
 973              	.LVL74:
 925:Middlewares/Third_Party/FreeRTOS/Source/timers.c **** 				( void ) xResult;
 974              		.loc 1 925 5 is_stmt 1 view .LVU254
 975 0050 0028     		cmp	r0, #0
 976 0052 D7D1     		bne	.L62
 925:Middlewares/Third_Party/FreeRTOS/Source/timers.c **** 				( void ) xResult;
 977              		.loc 1 925 5 view .LVU255
 978              	.LBB58:
 979              	.LBI58:
 191:Middlewares/Third_Party/FreeRTOS/Source/portable/GCC/ARM_CM4F/portmacro.h **** {
 980              		.loc 2 191 30 view .LVU256
 981              	.LBB59:
 193:Middlewares/Third_Party/FreeRTOS/Source/portable/GCC/ARM_CM4F/portmacro.h **** 
 982              		.loc 2 193 1 view .LVU257
 983              		.loc 2 195 2 view .LVU258
 984              		.syntax unified
 985              	@ 195 "Middlewares/Third_Party/FreeRTOS/Source/portable/GCC/ARM_CM4F/portmacro.h" 1
 986 0054 4FF05003 			mov r3, #80												
 987 0058 83F31188 		msr basepri, r3											
 988 005c BFF36F8F 		isb														
 989 0060 BFF34F8F 		dsb														
 990              	
 991              	@ 0 "" 2
 992              	.LVL75:
 993              		.thumb
 994              		.syntax unified
 995              	.L65:
 996              		.loc 2 195 2 is_stmt 0 view .LVU259
 997              	.LBE59:
 998              	.LBE58:
 925:Middlewares/Third_Party/FreeRTOS/Source/timers.c **** 				( void ) xResult;
 999              		.loc 1 925 5 is_stmt 1 discriminator 1 view .LVU260
 925:Middlewares/Third_Party/FreeRTOS/Source/timers.c **** 				( void ) xResult;
 1000              		.loc 1 925 5 discriminator 1 view .LVU261
 925:Middlewares/Third_Party/FreeRTOS/Source/timers.c **** 				( void ) xResult;
 1001              		.loc 1 925 5 discriminator 1 view .LVU262
 1002 0064 FEE7     		b	.L65
 1003              	.LVL76:
 1004              	.L68:
 935:Middlewares/Third_Party/FreeRTOS/Source/timers.c **** 	pxCurrentTimerList = pxOverflowTimerList;
 1005              		.loc 1 935 2 view .LVU263
 936:Middlewares/Third_Party/FreeRTOS/Source/timers.c **** 	pxOverflowTimerList = pxTemp;
 1006              		.loc 1 936 2 view .LVU264
 936:Middlewares/Third_Party/FreeRTOS/Source/timers.c **** 	pxOverflowTimerList = pxTemp;
 1007              		.loc 1 936 21 is_stmt 0 view .LVU265
 1008 0066 044A     		ldr	r2, .L69+4
ARM GAS  /tmp/ccApgZAB.s 			page 43


 1009 0068 1068     		ldr	r0, [r2]
 1010 006a 0249     		ldr	r1, .L69
 1011 006c 0860     		str	r0, [r1]
 937:Middlewares/Third_Party/FreeRTOS/Source/timers.c **** }
 1012              		.loc 1 937 2 is_stmt 1 view .LVU266
 937:Middlewares/Third_Party/FreeRTOS/Source/timers.c **** }
 1013              		.loc 1 937 22 is_stmt 0 view .LVU267
 1014 006e 1360     		str	r3, [r2]
 938:Middlewares/Third_Party/FreeRTOS/Source/timers.c **** /*-----------------------------------------------------------*/
 1015              		.loc 1 938 1 view .LVU268
 1016 0070 02B0     		add	sp, sp, #8
 1017              	.LCFI25:
 1018              		.cfi_def_cfa_offset 16
 1019              		@ sp needed
 1020 0072 70BD     		pop	{r4, r5, r6, pc}
 1021              	.L70:
 1022              		.align	2
 1023              	.L69:
 1024 0074 00000000 		.word	.LANCHOR0
 1025 0078 00000000 		.word	.LANCHOR1
 1026              		.cfi_endproc
 1027              	.LFE22:
 1029              		.section	.text.prvSampleTimeNow,"ax",%progbits
 1030              		.align	1
 1031              		.syntax unified
 1032              		.thumb
 1033              		.thumb_func
 1034              		.fpu fpv5-d16
 1036              	prvSampleTimeNow:
 1037              	.LVL77:
 1038              	.LFB19:
 671:Middlewares/Third_Party/FreeRTOS/Source/timers.c **** TickType_t xTimeNow;
 1039              		.loc 1 671 1 is_stmt 1 view -0
 1040              		.cfi_startproc
 1041              		@ args = 0, pretend = 0, frame = 0
 1042              		@ frame_needed = 0, uses_anonymous_args = 0
 671:Middlewares/Third_Party/FreeRTOS/Source/timers.c **** TickType_t xTimeNow;
 1043              		.loc 1 671 1 is_stmt 0 view .LVU270
 1044 0000 38B5     		push	{r3, r4, r5, lr}
 1045              	.LCFI26:
 1046              		.cfi_def_cfa_offset 16
 1047              		.cfi_offset 3, -16
 1048              		.cfi_offset 4, -12
 1049              		.cfi_offset 5, -8
 1050              		.cfi_offset 14, -4
 1051 0002 0546     		mov	r5, r0
 672:Middlewares/Third_Party/FreeRTOS/Source/timers.c **** PRIVILEGED_DATA static TickType_t xLastTime = ( TickType_t ) 0U; /*lint !e956 Variable is only acce
 1052              		.loc 1 672 1 is_stmt 1 view .LVU271
 673:Middlewares/Third_Party/FreeRTOS/Source/timers.c **** 
 1053              		.loc 1 673 17 view .LVU272
 675:Middlewares/Third_Party/FreeRTOS/Source/timers.c **** 
 1054              		.loc 1 675 2 view .LVU273
 675:Middlewares/Third_Party/FreeRTOS/Source/timers.c **** 
 1055              		.loc 1 675 13 is_stmt 0 view .LVU274
 1056 0004 FFF7FEFF 		bl	xTaskGetTickCount
 1057              	.LVL78:
 675:Middlewares/Third_Party/FreeRTOS/Source/timers.c **** 
ARM GAS  /tmp/ccApgZAB.s 			page 44


 1058              		.loc 1 675 13 view .LVU275
 1059 0008 0446     		mov	r4, r0
 1060              	.LVL79:
 677:Middlewares/Third_Party/FreeRTOS/Source/timers.c **** 	{
 1061              		.loc 1 677 2 is_stmt 1 view .LVU276
 677:Middlewares/Third_Party/FreeRTOS/Source/timers.c **** 	{
 1062              		.loc 1 677 15 is_stmt 0 view .LVU277
 1063 000a 074B     		ldr	r3, .L76
 1064 000c 1B68     		ldr	r3, [r3]
 677:Middlewares/Third_Party/FreeRTOS/Source/timers.c **** 	{
 1065              		.loc 1 677 4 view .LVU278
 1066 000e 8342     		cmp	r3, r0
 1067 0010 05D8     		bhi	.L75
 684:Middlewares/Third_Party/FreeRTOS/Source/timers.c **** 	}
 1068              		.loc 1 684 3 is_stmt 1 view .LVU279
 684:Middlewares/Third_Party/FreeRTOS/Source/timers.c **** 	}
 1069              		.loc 1 684 29 is_stmt 0 view .LVU280
 1070 0012 0023     		movs	r3, #0
 1071 0014 2B60     		str	r3, [r5]
 1072              	.LVL80:
 1073              	.L73:
 687:Middlewares/Third_Party/FreeRTOS/Source/timers.c **** 
 1074              		.loc 1 687 2 is_stmt 1 view .LVU281
 687:Middlewares/Third_Party/FreeRTOS/Source/timers.c **** 
 1075              		.loc 1 687 12 is_stmt 0 view .LVU282
 1076 0016 044B     		ldr	r3, .L76
 1077 0018 1C60     		str	r4, [r3]
 689:Middlewares/Third_Party/FreeRTOS/Source/timers.c **** }
 1078              		.loc 1 689 2 is_stmt 1 view .LVU283
 690:Middlewares/Third_Party/FreeRTOS/Source/timers.c **** /*-----------------------------------------------------------*/
 1079              		.loc 1 690 1 is_stmt 0 view .LVU284
 1080 001a 2046     		mov	r0, r4
 1081 001c 38BD     		pop	{r3, r4, r5, pc}
 1082              	.LVL81:
 1083              	.L75:
 679:Middlewares/Third_Party/FreeRTOS/Source/timers.c **** 		*pxTimerListsWereSwitched = pdTRUE;
 1084              		.loc 1 679 3 is_stmt 1 view .LVU285
 1085 001e FFF7FEFF 		bl	prvSwitchTimerLists
 1086              	.LVL82:
 680:Middlewares/Third_Party/FreeRTOS/Source/timers.c **** 	}
 1087              		.loc 1 680 3 view .LVU286
 680:Middlewares/Third_Party/FreeRTOS/Source/timers.c **** 	}
 1088              		.loc 1 680 29 is_stmt 0 view .LVU287
 1089 0022 0123     		movs	r3, #1
 1090 0024 2B60     		str	r3, [r5]
 1091 0026 F6E7     		b	.L73
 1092              	.L77:
 1093              		.align	2
 1094              	.L76:
 1095 0028 00000000 		.word	.LANCHOR8
 1096              		.cfi_endproc
 1097              	.LFE19:
 1099              		.section	.text.prvProcessExpiredTimer,"ax",%progbits
 1100              		.align	1
 1101              		.syntax unified
 1102              		.thumb
 1103              		.thumb_func
ARM GAS  /tmp/ccApgZAB.s 			page 45


 1104              		.fpu fpv5-d16
 1106              	prvProcessExpiredTimer:
 1107              	.LVL83:
 1108              	.LFB15:
 508:Middlewares/Third_Party/FreeRTOS/Source/timers.c **** BaseType_t xResult;
 1109              		.loc 1 508 1 is_stmt 1 view -0
 1110              		.cfi_startproc
 1111              		@ args = 0, pretend = 0, frame = 0
 1112              		@ frame_needed = 0, uses_anonymous_args = 0
 508:Middlewares/Third_Party/FreeRTOS/Source/timers.c **** BaseType_t xResult;
 1113              		.loc 1 508 1 is_stmt 0 view .LVU289
 1114 0000 70B5     		push	{r4, r5, r6, lr}
 1115              	.LCFI27:
 1116              		.cfi_def_cfa_offset 16
 1117              		.cfi_offset 4, -16
 1118              		.cfi_offset 5, -12
 1119              		.cfi_offset 6, -8
 1120              		.cfi_offset 14, -4
 1121 0002 82B0     		sub	sp, sp, #8
 1122              	.LCFI28:
 1123              		.cfi_def_cfa_offset 24
 1124 0004 0546     		mov	r5, r0
 1125 0006 0E46     		mov	r6, r1
 509:Middlewares/Third_Party/FreeRTOS/Source/timers.c **** Timer_t * const pxTimer = ( Timer_t * ) listGET_OWNER_OF_HEAD_ENTRY( pxCurrentTimerList ); /*lint !
 1126              		.loc 1 509 1 is_stmt 1 view .LVU290
 510:Middlewares/Third_Party/FreeRTOS/Source/timers.c **** 
 1127              		.loc 1 510 1 view .LVU291
 510:Middlewares/Third_Party/FreeRTOS/Source/timers.c **** 
 1128              		.loc 1 510 41 is_stmt 0 view .LVU292
 1129 0008 174B     		ldr	r3, .L84
 1130 000a 1B68     		ldr	r3, [r3]
 1131 000c DB68     		ldr	r3, [r3, #12]
 510:Middlewares/Third_Party/FreeRTOS/Source/timers.c **** 
 1132              		.loc 1 510 17 view .LVU293
 1133 000e DC68     		ldr	r4, [r3, #12]
 1134              	.LVL84:
 514:Middlewares/Third_Party/FreeRTOS/Source/timers.c **** 	traceTIMER_EXPIRED( pxTimer );
 1135              		.loc 1 514 2 is_stmt 1 view .LVU294
 514:Middlewares/Third_Party/FreeRTOS/Source/timers.c **** 	traceTIMER_EXPIRED( pxTimer );
 1136              		.loc 1 514 11 is_stmt 0 view .LVU295
 1137 0010 201D     		adds	r0, r4, #4
 1138              	.LVL85:
 514:Middlewares/Third_Party/FreeRTOS/Source/timers.c **** 	traceTIMER_EXPIRED( pxTimer );
 1139              		.loc 1 514 11 view .LVU296
 1140 0012 FFF7FEFF 		bl	uxListRemove
 1141              	.LVL86:
 515:Middlewares/Third_Party/FreeRTOS/Source/timers.c **** 
 1142              		.loc 1 515 31 is_stmt 1 view .LVU297
 519:Middlewares/Third_Party/FreeRTOS/Source/timers.c **** 	{
 1143              		.loc 1 519 2 view .LVU298
 519:Middlewares/Third_Party/FreeRTOS/Source/timers.c **** 	{
 1144              		.loc 1 519 15 is_stmt 0 view .LVU299
 1145 0016 94F82830 		ldrb	r3, [r4, #40]	@ zero_extendqisi2
 519:Middlewares/Third_Party/FreeRTOS/Source/timers.c **** 	{
 1146              		.loc 1 519 4 view .LVU300
 1147 001a 13F0040F 		tst	r3, #4
 1148 001e 08D1     		bne	.L83
ARM GAS  /tmp/ccApgZAB.s 			page 46


 539:Middlewares/Third_Party/FreeRTOS/Source/timers.c **** 		mtCOVERAGE_TEST_MARKER();
 1149              		.loc 1 539 3 is_stmt 1 view .LVU301
 539:Middlewares/Third_Party/FreeRTOS/Source/timers.c **** 		mtCOVERAGE_TEST_MARKER();
 1150              		.loc 1 539 21 is_stmt 0 view .LVU302
 1151 0020 23F00103 		bic	r3, r3, #1
 1152 0024 84F82830 		strb	r3, [r4, #40]
 1153              	.L80:
 540:Middlewares/Third_Party/FreeRTOS/Source/timers.c **** 	}
 1154              		.loc 1 540 27 is_stmt 1 view .LVU303
 544:Middlewares/Third_Party/FreeRTOS/Source/timers.c **** }
 1155              		.loc 1 544 2 view .LVU304
 544:Middlewares/Third_Party/FreeRTOS/Source/timers.c **** }
 1156              		.loc 1 544 9 is_stmt 0 view .LVU305
 1157 0028 236A     		ldr	r3, [r4, #32]
 544:Middlewares/Third_Party/FreeRTOS/Source/timers.c **** }
 1158              		.loc 1 544 2 view .LVU306
 1159 002a 2046     		mov	r0, r4
 1160 002c 9847     		blx	r3
 1161              	.LVL87:
 545:Middlewares/Third_Party/FreeRTOS/Source/timers.c **** /*-----------------------------------------------------------*/
 1162              		.loc 1 545 1 view .LVU307
 1163 002e 02B0     		add	sp, sp, #8
 1164              	.LCFI29:
 1165              		.cfi_remember_state
 1166              		.cfi_def_cfa_offset 16
 1167              		@ sp needed
 1168 0030 70BD     		pop	{r4, r5, r6, pc}
 1169              	.LVL88:
 1170              	.L83:
 1171              	.LCFI30:
 1172              		.cfi_restore_state
 524:Middlewares/Third_Party/FreeRTOS/Source/timers.c **** 		{
 1173              		.loc 1 524 3 is_stmt 1 view .LVU308
 524:Middlewares/Third_Party/FreeRTOS/Source/timers.c **** 		{
 1174              		.loc 1 524 71 is_stmt 0 view .LVU309
 1175 0032 A169     		ldr	r1, [r4, #24]
 524:Middlewares/Third_Party/FreeRTOS/Source/timers.c **** 		{
 1176              		.loc 1 524 7 view .LVU310
 1177 0034 2B46     		mov	r3, r5
 1178 0036 3246     		mov	r2, r6
 1179 0038 2944     		add	r1, r1, r5
 1180 003a 2046     		mov	r0, r4
 1181 003c FFF7FEFF 		bl	prvInsertTimerInActiveList
 1182              	.LVL89:
 524:Middlewares/Third_Party/FreeRTOS/Source/timers.c **** 		{
 1183              		.loc 1 524 5 view .LVU311
 1184 0040 0028     		cmp	r0, #0
 1185 0042 F1D0     		beq	.L80
 528:Middlewares/Third_Party/FreeRTOS/Source/timers.c **** 			configASSERT( xResult );
 1186              		.loc 1 528 4 is_stmt 1 view .LVU312
 528:Middlewares/Third_Party/FreeRTOS/Source/timers.c **** 			configASSERT( xResult );
 1187              		.loc 1 528 14 is_stmt 0 view .LVU313
 1188 0044 0021     		movs	r1, #0
 1189 0046 0091     		str	r1, [sp]
 1190 0048 0B46     		mov	r3, r1
 1191 004a 2A46     		mov	r2, r5
 1192 004c 2046     		mov	r0, r4
ARM GAS  /tmp/ccApgZAB.s 			page 47


 1193 004e FFF7FEFF 		bl	xTimerGenericCommand
 1194              	.LVL90:
 529:Middlewares/Third_Party/FreeRTOS/Source/timers.c **** 			( void ) xResult;
 1195              		.loc 1 529 4 is_stmt 1 view .LVU314
 1196 0052 0028     		cmp	r0, #0
 1197 0054 E8D1     		bne	.L80
 529:Middlewares/Third_Party/FreeRTOS/Source/timers.c **** 			( void ) xResult;
 1198              		.loc 1 529 4 view .LVU315
 1199              	.LBB60:
 1200              	.LBI60:
 191:Middlewares/Third_Party/FreeRTOS/Source/portable/GCC/ARM_CM4F/portmacro.h **** {
 1201              		.loc 2 191 30 view .LVU316
 1202              	.LBB61:
 193:Middlewares/Third_Party/FreeRTOS/Source/portable/GCC/ARM_CM4F/portmacro.h **** 
 1203              		.loc 2 193 1 view .LVU317
 1204              		.loc 2 195 2 view .LVU318
 1205              		.syntax unified
 1206              	@ 195 "Middlewares/Third_Party/FreeRTOS/Source/portable/GCC/ARM_CM4F/portmacro.h" 1
 1207 0056 4FF05003 			mov r3, #80												
 1208 005a 83F31188 		msr basepri, r3											
 1209 005e BFF36F8F 		isb														
 1210 0062 BFF34F8F 		dsb														
 1211              	
 1212              	@ 0 "" 2
 1213              	.LVL91:
 1214              		.thumb
 1215              		.syntax unified
 1216              	.L81:
 1217              		.loc 2 195 2 is_stmt 0 view .LVU319
 1218              	.LBE61:
 1219              	.LBE60:
 529:Middlewares/Third_Party/FreeRTOS/Source/timers.c **** 			( void ) xResult;
 1220              		.loc 1 529 4 is_stmt 1 discriminator 1 view .LVU320
 529:Middlewares/Third_Party/FreeRTOS/Source/timers.c **** 			( void ) xResult;
 1221              		.loc 1 529 4 discriminator 1 view .LVU321
 529:Middlewares/Third_Party/FreeRTOS/Source/timers.c **** 			( void ) xResult;
 1222              		.loc 1 529 4 discriminator 1 view .LVU322
 1223 0066 FEE7     		b	.L81
 1224              	.L85:
 1225              		.align	2
 1226              	.L84:
 1227 0068 00000000 		.word	.LANCHOR0
 1228              		.cfi_endproc
 1229              	.LFE15:
 1231              		.section	.text.prvProcessTimerOrBlockTask,"ax",%progbits
 1232              		.align	1
 1233              		.syntax unified
 1234              		.thumb
 1235              		.thumb_func
 1236              		.fpu fpv5-d16
 1238              	prvProcessTimerOrBlockTask:
 1239              	.LVL92:
 1240              	.LFB17:
 585:Middlewares/Third_Party/FreeRTOS/Source/timers.c **** TickType_t xTimeNow;
 1241              		.loc 1 585 1 view -0
 1242              		.cfi_startproc
 1243              		@ args = 0, pretend = 0, frame = 8
ARM GAS  /tmp/ccApgZAB.s 			page 48


 1244              		@ frame_needed = 0, uses_anonymous_args = 0
 585:Middlewares/Third_Party/FreeRTOS/Source/timers.c **** TickType_t xTimeNow;
 1245              		.loc 1 585 1 is_stmt 0 view .LVU324
 1246 0000 70B5     		push	{r4, r5, r6, lr}
 1247              	.LCFI31:
 1248              		.cfi_def_cfa_offset 16
 1249              		.cfi_offset 4, -16
 1250              		.cfi_offset 5, -12
 1251              		.cfi_offset 6, -8
 1252              		.cfi_offset 14, -4
 1253 0002 82B0     		sub	sp, sp, #8
 1254              	.LCFI32:
 1255              		.cfi_def_cfa_offset 24
 1256 0004 0646     		mov	r6, r0
 1257 0006 0C46     		mov	r4, r1
 586:Middlewares/Third_Party/FreeRTOS/Source/timers.c **** BaseType_t xTimerListsWereSwitched;
 1258              		.loc 1 586 1 is_stmt 1 view .LVU325
 587:Middlewares/Third_Party/FreeRTOS/Source/timers.c **** 
 1259              		.loc 1 587 1 view .LVU326
 589:Middlewares/Third_Party/FreeRTOS/Source/timers.c **** 	{
 1260              		.loc 1 589 2 view .LVU327
 1261 0008 FFF7FEFF 		bl	vTaskSuspendAll
 1262              	.LVL93:
 596:Middlewares/Third_Party/FreeRTOS/Source/timers.c **** 		if( xTimerListsWereSwitched == pdFALSE )
 1263              		.loc 1 596 3 view .LVU328
 596:Middlewares/Third_Party/FreeRTOS/Source/timers.c **** 		if( xTimerListsWereSwitched == pdFALSE )
 1264              		.loc 1 596 14 is_stmt 0 view .LVU329
 1265 000c 01A8     		add	r0, sp, #4
 1266 000e FFF7FEFF 		bl	prvSampleTimeNow
 1267              	.LVL94:
 597:Middlewares/Third_Party/FreeRTOS/Source/timers.c **** 		{
 1268              		.loc 1 597 3 is_stmt 1 view .LVU330
 597:Middlewares/Third_Party/FreeRTOS/Source/timers.c **** 		{
 1269              		.loc 1 597 31 is_stmt 0 view .LVU331
 1270 0012 019A     		ldr	r2, [sp, #4]
 597:Middlewares/Third_Party/FreeRTOS/Source/timers.c **** 		{
 1271              		.loc 1 597 5 view .LVU332
 1272 0014 4ABB     		cbnz	r2, .L87
 1273 0016 0546     		mov	r5, r0
 600:Middlewares/Third_Party/FreeRTOS/Source/timers.c **** 			{
 1274              		.loc 1 600 4 is_stmt 1 view .LVU333
 600:Middlewares/Third_Party/FreeRTOS/Source/timers.c **** 			{
 1275              		.loc 1 600 58 is_stmt 0 view .LVU334
 1276 0018 B042     		cmp	r0, r6
 1277 001a 34BF     		ite	cc
 1278 001c 0023     		movcc	r3, #0
 1279 001e 0123     		movcs	r3, #1
 600:Middlewares/Third_Party/FreeRTOS/Source/timers.c **** 			{
 1280              		.loc 1 600 37 view .LVU335
 1281 0020 002C     		cmp	r4, #0
 1282 0022 18BF     		it	ne
 1283 0024 0023     		movne	r3, #0
 600:Middlewares/Third_Party/FreeRTOS/Source/timers.c **** 			{
 1284              		.loc 1 600 6 view .LVU336
 1285 0026 BBB9     		cbnz	r3, .L93
 613:Middlewares/Third_Party/FreeRTOS/Source/timers.c **** 				{
 1286              		.loc 1 613 5 is_stmt 1 view .LVU337
ARM GAS  /tmp/ccApgZAB.s 			page 49


 613:Middlewares/Third_Party/FreeRTOS/Source/timers.c **** 				{
 1287              		.loc 1 613 7 is_stmt 0 view .LVU338
 1288 0028 24B1     		cbz	r4, .L90
 617:Middlewares/Third_Party/FreeRTOS/Source/timers.c **** 				}
 1289              		.loc 1 617 6 is_stmt 1 view .LVU339
 617:Middlewares/Third_Party/FreeRTOS/Source/timers.c **** 				}
 1290              		.loc 1 617 22 is_stmt 0 view .LVU340
 1291 002a 124B     		ldr	r3, .L94
 1292 002c 1B68     		ldr	r3, [r3]
 1293 002e 1B68     		ldr	r3, [r3]
 1294 0030 CBB9     		cbnz	r3, .L91
 1295 0032 0124     		movs	r4, #1
 1296              	.LVL95:
 1297              	.L90:
 620:Middlewares/Third_Party/FreeRTOS/Source/timers.c **** 
 1298              		.loc 1 620 5 is_stmt 1 view .LVU341
 1299 0034 2246     		mov	r2, r4
 1300 0036 711B     		subs	r1, r6, r5
 1301 0038 0F4B     		ldr	r3, .L94+4
 1302 003a 1868     		ldr	r0, [r3]
 1303              	.LVL96:
 620:Middlewares/Third_Party/FreeRTOS/Source/timers.c **** 
 1304              		.loc 1 620 5 is_stmt 0 view .LVU342
 1305 003c FFF7FEFF 		bl	vQueueWaitForMessageRestricted
 1306              	.LVL97:
 622:Middlewares/Third_Party/FreeRTOS/Source/timers.c **** 				{
 1307              		.loc 1 622 5 is_stmt 1 view .LVU343
 622:Middlewares/Third_Party/FreeRTOS/Source/timers.c **** 				{
 1308              		.loc 1 622 9 is_stmt 0 view .LVU344
 1309 0040 FFF7FEFF 		bl	xTaskResumeAll
 1310              	.LVL98:
 622:Middlewares/Third_Party/FreeRTOS/Source/timers.c **** 				{
 1311              		.loc 1 622 7 view .LVU345
 1312 0044 98B9     		cbnz	r0, .L86
 628:Middlewares/Third_Party/FreeRTOS/Source/timers.c **** 				}
 1313              		.loc 1 628 6 is_stmt 1 view .LVU346
 1314 0046 0D4B     		ldr	r3, .L94+8
 1315 0048 4FF08052 		mov	r2, #268435456
 1316 004c 1A60     		str	r2, [r3]
 628:Middlewares/Third_Party/FreeRTOS/Source/timers.c **** 				}
 1317              		.loc 1 628 6 view .LVU347
 1318              		.syntax unified
 1319              	@ 628 "Middlewares/Third_Party/FreeRTOS/Source/timers.c" 1
 1320 004e BFF34F8F 		dsb
 1321              	@ 0 "" 2
 628:Middlewares/Third_Party/FreeRTOS/Source/timers.c **** 				}
 1322              		.loc 1 628 6 view .LVU348
 1323              	@ 628 "Middlewares/Third_Party/FreeRTOS/Source/timers.c" 1
 1324 0052 BFF36F8F 		isb
 1325              	@ 0 "" 2
 628:Middlewares/Third_Party/FreeRTOS/Source/timers.c **** 				}
 1326              		.loc 1 628 28 view .LVU349
 1327              		.thumb
 1328              		.syntax unified
 1329 0056 0AE0     		b	.L86
 1330              	.LVL99:
 1331              	.L93:
ARM GAS  /tmp/ccApgZAB.s 			page 50


 602:Middlewares/Third_Party/FreeRTOS/Source/timers.c **** 				prvProcessExpiredTimer( xNextExpireTime, xTimeNow );
 1332              		.loc 1 602 5 view .LVU350
 602:Middlewares/Third_Party/FreeRTOS/Source/timers.c **** 				prvProcessExpiredTimer( xNextExpireTime, xTimeNow );
 1333              		.loc 1 602 14 is_stmt 0 view .LVU351
 1334 0058 FFF7FEFF 		bl	xTaskResumeAll
 1335              	.LVL100:
 603:Middlewares/Third_Party/FreeRTOS/Source/timers.c **** 			}
 1336              		.loc 1 603 5 is_stmt 1 view .LVU352
 1337 005c 2946     		mov	r1, r5
 1338 005e 3046     		mov	r0, r6
 1339 0060 FFF7FEFF 		bl	prvProcessExpiredTimer
 1340              	.LVL101:
 1341 0064 03E0     		b	.L86
 1342              	.LVL102:
 1343              	.L91:
 617:Middlewares/Third_Party/FreeRTOS/Source/timers.c **** 				}
 1344              		.loc 1 617 22 is_stmt 0 view .LVU353
 1345 0066 1446     		mov	r4, r2
 1346              	.LVL103:
 617:Middlewares/Third_Party/FreeRTOS/Source/timers.c **** 				}
 1347              		.loc 1 617 22 view .LVU354
 1348 0068 E4E7     		b	.L90
 1349              	.LVL104:
 1350              	.L87:
 638:Middlewares/Third_Party/FreeRTOS/Source/timers.c **** 		}
 1351              		.loc 1 638 4 is_stmt 1 view .LVU355
 638:Middlewares/Third_Party/FreeRTOS/Source/timers.c **** 		}
 1352              		.loc 1 638 13 is_stmt 0 view .LVU356
 1353 006a FFF7FEFF 		bl	xTaskResumeAll
 1354              	.LVL105:
 1355              	.L86:
 641:Middlewares/Third_Party/FreeRTOS/Source/timers.c **** /*-----------------------------------------------------------*/
 1356              		.loc 1 641 1 view .LVU357
 1357 006e 02B0     		add	sp, sp, #8
 1358              	.LCFI33:
 1359              		.cfi_def_cfa_offset 16
 1360              		@ sp needed
 1361 0070 70BD     		pop	{r4, r5, r6, pc}
 1362              	.LVL106:
 1363              	.L95:
 641:Middlewares/Third_Party/FreeRTOS/Source/timers.c **** /*-----------------------------------------------------------*/
 1364              		.loc 1 641 1 view .LVU358
 1365 0072 00BF     		.align	2
 1366              	.L94:
 1367 0074 00000000 		.word	.LANCHOR1
 1368 0078 00000000 		.word	.LANCHOR2
 1369 007c 04ED00E0 		.word	-536810236
 1370              		.cfi_endproc
 1371              	.LFE17:
 1373              		.section	.text.prvProcessReceivedCommands,"ax",%progbits
 1374              		.align	1
 1375              		.syntax unified
 1376              		.thumb
 1377              		.thumb_func
 1378              		.fpu fpv5-d16
 1380              	prvProcessReceivedCommands:
 1381              	.LFB21:
ARM GAS  /tmp/ccApgZAB.s 			page 51


 735:Middlewares/Third_Party/FreeRTOS/Source/timers.c **** DaemonTaskMessage_t xMessage;
 1382              		.loc 1 735 1 is_stmt 1 view -0
 1383              		.cfi_startproc
 1384              		@ args = 0, pretend = 0, frame = 24
 1385              		@ frame_needed = 0, uses_anonymous_args = 0
 1386 0000 10B5     		push	{r4, lr}
 1387              	.LCFI34:
 1388              		.cfi_def_cfa_offset 8
 1389              		.cfi_offset 4, -8
 1390              		.cfi_offset 14, -4
 1391 0002 88B0     		sub	sp, sp, #32
 1392              	.LCFI35:
 1393              		.cfi_def_cfa_offset 40
 736:Middlewares/Third_Party/FreeRTOS/Source/timers.c **** Timer_t *pxTimer;
 1394              		.loc 1 736 1 view .LVU360
 737:Middlewares/Third_Party/FreeRTOS/Source/timers.c **** BaseType_t xTimerListsWereSwitched, xResult;
 1395              		.loc 1 737 1 view .LVU361
 738:Middlewares/Third_Party/FreeRTOS/Source/timers.c **** TickType_t xTimeNow;
 1396              		.loc 1 738 1 view .LVU362
 739:Middlewares/Third_Party/FreeRTOS/Source/timers.c **** 
 1397              		.loc 1 739 1 view .LVU363
 741:Middlewares/Third_Party/FreeRTOS/Source/timers.c **** 	{
 1398              		.loc 1 741 2 view .LVU364
 741:Middlewares/Third_Party/FreeRTOS/Source/timers.c **** 	{
 1399              		.loc 1 741 7 is_stmt 0 view .LVU365
 1400 0004 06E0     		b	.L99
 1401              	.L116:
 1402              	.LBB62:
 749:Middlewares/Third_Party/FreeRTOS/Source/timers.c **** 
 1403              		.loc 1 749 5 is_stmt 1 discriminator 2 view .LVU366
 1404              	.LVL107:
 753:Middlewares/Third_Party/FreeRTOS/Source/timers.c **** 
 1405              		.loc 1 753 5 discriminator 2 view .LVU367
 753:Middlewares/Third_Party/FreeRTOS/Source/timers.c **** 
 1406              		.loc 1 753 31 discriminator 2 view .LVU368
 756:Middlewares/Third_Party/FreeRTOS/Source/timers.c **** 			}
 1407              		.loc 1 756 5 discriminator 2 view .LVU369
 1408 0006 0799     		ldr	r1, [sp, #28]
 1409 0008 0698     		ldr	r0, [sp, #24]
 1410 000a 059B     		ldr	r3, [sp, #20]
 1411 000c 9847     		blx	r3
 1412              	.LVL108:
 1413              	.L98:
 756:Middlewares/Third_Party/FreeRTOS/Source/timers.c **** 			}
 1414              		.loc 1 756 5 is_stmt 0 discriminator 2 view .LVU370
 1415              	.LBE62:
 760:Middlewares/Third_Party/FreeRTOS/Source/timers.c **** 			}
 1416              		.loc 1 760 29 is_stmt 1 view .LVU371
 767:Middlewares/Third_Party/FreeRTOS/Source/timers.c **** 		{
 1417              		.loc 1 767 3 view .LVU372
 767:Middlewares/Third_Party/FreeRTOS/Source/timers.c **** 		{
 1418              		.loc 1 767 15 is_stmt 0 view .LVU373
 1419 000e 049B     		ldr	r3, [sp, #16]
 767:Middlewares/Third_Party/FreeRTOS/Source/timers.c **** 		{
 1420              		.loc 1 767 5 view .LVU374
 1421 0010 002B     		cmp	r3, #0
 1422 0012 0BDA     		bge	.L114
ARM GAS  /tmp/ccApgZAB.s 			page 52


 1423              	.L99:
 741:Middlewares/Third_Party/FreeRTOS/Source/timers.c **** 	{
 1424              		.loc 1 741 7 is_stmt 1 view .LVU375
 741:Middlewares/Third_Party/FreeRTOS/Source/timers.c **** 	{
 1425              		.loc 1 741 9 is_stmt 0 view .LVU376
 1426 0014 0022     		movs	r2, #0
 1427 0016 04A9     		add	r1, sp, #16
 1428 0018 3B4B     		ldr	r3, .L119
 1429 001a 1868     		ldr	r0, [r3]
 1430 001c FFF7FEFF 		bl	xQueueReceive
 1431              	.LVL109:
 741:Middlewares/Third_Party/FreeRTOS/Source/timers.c **** 	{
 1432              		.loc 1 741 7 view .LVU377
 1433 0020 0028     		cmp	r0, #0
 1434 0022 6FD0     		beq	.L115
 747:Middlewares/Third_Party/FreeRTOS/Source/timers.c **** 			{
 1435              		.loc 1 747 4 is_stmt 1 view .LVU378
 747:Middlewares/Third_Party/FreeRTOS/Source/timers.c **** 			{
 1436              		.loc 1 747 16 is_stmt 0 view .LVU379
 1437 0024 049B     		ldr	r3, [sp, #16]
 747:Middlewares/Third_Party/FreeRTOS/Source/timers.c **** 			{
 1438              		.loc 1 747 6 view .LVU380
 1439 0026 002B     		cmp	r3, #0
 1440 0028 F1DA     		bge	.L98
 1441 002a ECE7     		b	.L116
 1442              	.L114:
 771:Middlewares/Third_Party/FreeRTOS/Source/timers.c **** 
 1443              		.loc 1 771 4 is_stmt 1 view .LVU381
 771:Middlewares/Third_Party/FreeRTOS/Source/timers.c **** 
 1444              		.loc 1 771 12 is_stmt 0 view .LVU382
 1445 002c 069C     		ldr	r4, [sp, #24]
 1446              	.LVL110:
 773:Middlewares/Third_Party/FreeRTOS/Source/timers.c **** 			{
 1447              		.loc 1 773 4 is_stmt 1 view .LVU383
 773:Middlewares/Third_Party/FreeRTOS/Source/timers.c **** 			{
 1448              		.loc 1 773 8 is_stmt 0 view .LVU384
 1449 002e 6369     		ldr	r3, [r4, #20]
 773:Middlewares/Third_Party/FreeRTOS/Source/timers.c **** 			{
 1450              		.loc 1 773 6 view .LVU385
 1451 0030 13B1     		cbz	r3, .L100
 776:Middlewares/Third_Party/FreeRTOS/Source/timers.c **** 			}
 1452              		.loc 1 776 5 is_stmt 1 view .LVU386
 776:Middlewares/Third_Party/FreeRTOS/Source/timers.c **** 			}
 1453              		.loc 1 776 14 is_stmt 0 view .LVU387
 1454 0032 201D     		adds	r0, r4, #4
 1455 0034 FFF7FEFF 		bl	uxListRemove
 1456              	.LVL111:
 1457              	.L100:
 780:Middlewares/Third_Party/FreeRTOS/Source/timers.c **** 			}
 1458              		.loc 1 780 29 is_stmt 1 view .LVU388
 783:Middlewares/Third_Party/FreeRTOS/Source/timers.c **** 
 1459              		.loc 1 783 106 view .LVU389
 791:Middlewares/Third_Party/FreeRTOS/Source/timers.c **** 
 1460              		.loc 1 791 4 view .LVU390
 791:Middlewares/Third_Party/FreeRTOS/Source/timers.c **** 
 1461              		.loc 1 791 15 is_stmt 0 view .LVU391
 1462 0038 03A8     		add	r0, sp, #12
ARM GAS  /tmp/ccApgZAB.s 			page 53


 1463 003a FFF7FEFF 		bl	prvSampleTimeNow
 1464              	.LVL112:
 793:Middlewares/Third_Party/FreeRTOS/Source/timers.c **** 			{
 1465              		.loc 1 793 4 is_stmt 1 view .LVU392
 793:Middlewares/Third_Party/FreeRTOS/Source/timers.c **** 			{
 1466              		.loc 1 793 20 is_stmt 0 view .LVU393
 1467 003e 049B     		ldr	r3, [sp, #16]
 1468 0040 092B     		cmp	r3, #9
 1469 0042 E7D8     		bhi	.L99
 1470 0044 DFE803F0 		tbb	[pc, r3]
 1471              	.L103:
 1472 0048 05       		.byte	(.L105-.L103)/2
 1473 0049 05       		.byte	(.L105-.L103)/2
 1474 004a 05       		.byte	(.L105-.L103)/2
 1475 004b 30       		.byte	(.L104-.L103)/2
 1476 004c 37       		.byte	(.L102-.L103)/2
 1477 004d 50       		.byte	(.L106-.L103)/2
 1478 004e 05       		.byte	(.L105-.L103)/2
 1479 004f 05       		.byte	(.L105-.L103)/2
 1480 0050 30       		.byte	(.L104-.L103)/2
 1481 0051 37       		.byte	(.L102-.L103)/2
 1482              		.p2align 1
 1483              	.L105:
 801:Middlewares/Third_Party/FreeRTOS/Source/timers.c **** 					if( prvInsertTimerInActiveList( pxTimer,  xMessage.u.xTimerParameters.xMessageValue + pxTimer-
 1484              		.loc 1 801 6 is_stmt 1 view .LVU394
 801:Middlewares/Third_Party/FreeRTOS/Source/timers.c **** 					if( prvInsertTimerInActiveList( pxTimer,  xMessage.u.xTimerParameters.xMessageValue + pxTimer-
 1485              		.loc 1 801 24 is_stmt 0 view .LVU395
 1486 0052 94F82830 		ldrb	r3, [r4, #40]	@ zero_extendqisi2
 1487 0056 43F00103 		orr	r3, r3, #1
 1488 005a 84F82830 		strb	r3, [r4, #40]
 802:Middlewares/Third_Party/FreeRTOS/Source/timers.c **** 					{
 1489              		.loc 1 802 6 is_stmt 1 view .LVU396
 802:Middlewares/Third_Party/FreeRTOS/Source/timers.c **** 					{
 1490              		.loc 1 802 75 is_stmt 0 view .LVU397
 1491 005e 059B     		ldr	r3, [sp, #20]
 802:Middlewares/Third_Party/FreeRTOS/Source/timers.c **** 					{
 1492              		.loc 1 802 99 view .LVU398
 1493 0060 A169     		ldr	r1, [r4, #24]
 802:Middlewares/Third_Party/FreeRTOS/Source/timers.c **** 					{
 1494              		.loc 1 802 10 view .LVU399
 1495 0062 0246     		mov	r2, r0
 1496 0064 1944     		add	r1, r1, r3
 1497 0066 2046     		mov	r0, r4
 1498              	.LVL113:
 802:Middlewares/Third_Party/FreeRTOS/Source/timers.c **** 					{
 1499              		.loc 1 802 10 view .LVU400
 1500 0068 FFF7FEFF 		bl	prvInsertTimerInActiveList
 1501              	.LVL114:
 802:Middlewares/Third_Party/FreeRTOS/Source/timers.c **** 					{
 1502              		.loc 1 802 8 view .LVU401
 1503 006c 0028     		cmp	r0, #0
 1504 006e D1D0     		beq	.L99
 806:Middlewares/Third_Party/FreeRTOS/Source/timers.c **** 						traceTIMER_EXPIRED( pxTimer );
 1505              		.loc 1 806 7 is_stmt 1 view .LVU402
 806:Middlewares/Third_Party/FreeRTOS/Source/timers.c **** 						traceTIMER_EXPIRED( pxTimer );
 1506              		.loc 1 806 14 is_stmt 0 view .LVU403
 1507 0070 236A     		ldr	r3, [r4, #32]
ARM GAS  /tmp/ccApgZAB.s 			page 54


 806:Middlewares/Third_Party/FreeRTOS/Source/timers.c **** 						traceTIMER_EXPIRED( pxTimer );
 1508              		.loc 1 806 7 view .LVU404
 1509 0072 2046     		mov	r0, r4
 1510 0074 9847     		blx	r3
 1511              	.LVL115:
 807:Middlewares/Third_Party/FreeRTOS/Source/timers.c **** 
 1512              		.loc 1 807 36 is_stmt 1 view .LVU405
 809:Middlewares/Third_Party/FreeRTOS/Source/timers.c **** 						{
 1513              		.loc 1 809 7 view .LVU406
 809:Middlewares/Third_Party/FreeRTOS/Source/timers.c **** 						{
 1514              		.loc 1 809 20 is_stmt 0 view .LVU407
 1515 0076 94F82830 		ldrb	r3, [r4, #40]	@ zero_extendqisi2
 809:Middlewares/Third_Party/FreeRTOS/Source/timers.c **** 						{
 1516              		.loc 1 809 9 view .LVU408
 1517 007a 13F0040F 		tst	r3, #4
 1518 007e C9D0     		beq	.L99
 811:Middlewares/Third_Party/FreeRTOS/Source/timers.c **** 							configASSERT( xResult );
 1519              		.loc 1 811 8 is_stmt 1 view .LVU409
 811:Middlewares/Third_Party/FreeRTOS/Source/timers.c **** 							configASSERT( xResult );
 1520              		.loc 1 811 129 is_stmt 0 view .LVU410
 1521 0080 A269     		ldr	r2, [r4, #24]
 811:Middlewares/Third_Party/FreeRTOS/Source/timers.c **** 							configASSERT( xResult );
 1522              		.loc 1 811 18 view .LVU411
 1523 0082 0021     		movs	r1, #0
 1524 0084 0091     		str	r1, [sp]
 1525 0086 0B46     		mov	r3, r1
 1526 0088 0598     		ldr	r0, [sp, #20]
 1527 008a 0244     		add	r2, r2, r0
 1528 008c 2046     		mov	r0, r4
 1529 008e FFF7FEFF 		bl	xTimerGenericCommand
 1530              	.LVL116:
 812:Middlewares/Third_Party/FreeRTOS/Source/timers.c **** 							( void ) xResult;
 1531              		.loc 1 812 8 is_stmt 1 view .LVU412
 1532 0092 0028     		cmp	r0, #0
 1533 0094 BED1     		bne	.L99
 812:Middlewares/Third_Party/FreeRTOS/Source/timers.c **** 							( void ) xResult;
 1534              		.loc 1 812 8 view .LVU413
 1535              	.LBB63:
 1536              	.LBI63:
 191:Middlewares/Third_Party/FreeRTOS/Source/portable/GCC/ARM_CM4F/portmacro.h **** {
 1537              		.loc 2 191 30 view .LVU414
 1538              	.LBB64:
 193:Middlewares/Third_Party/FreeRTOS/Source/portable/GCC/ARM_CM4F/portmacro.h **** 
 1539              		.loc 2 193 1 view .LVU415
 1540              		.loc 2 195 2 view .LVU416
 1541              		.syntax unified
 1542              	@ 195 "Middlewares/Third_Party/FreeRTOS/Source/portable/GCC/ARM_CM4F/portmacro.h" 1
 1543 0096 4FF05003 			mov r3, #80												
 1544 009a 83F31188 		msr basepri, r3											
 1545 009e BFF36F8F 		isb														
 1546 00a2 BFF34F8F 		dsb														
 1547              	
 1548              	@ 0 "" 2
 1549              	.LVL117:
 1550              		.thumb
 1551              		.syntax unified
 1552              	.L108:
ARM GAS  /tmp/ccApgZAB.s 			page 55


 1553              		.loc 2 195 2 is_stmt 0 view .LVU417
 1554              	.LBE64:
 1555              	.LBE63:
 812:Middlewares/Third_Party/FreeRTOS/Source/timers.c **** 							( void ) xResult;
 1556              		.loc 1 812 8 is_stmt 1 discriminator 2 view .LVU418
 812:Middlewares/Third_Party/FreeRTOS/Source/timers.c **** 							( void ) xResult;
 1557              		.loc 1 812 8 discriminator 2 view .LVU419
 812:Middlewares/Third_Party/FreeRTOS/Source/timers.c **** 							( void ) xResult;
 1558              		.loc 1 812 8 discriminator 2 view .LVU420
 1559 00a6 FEE7     		b	.L108
 1560              	.LVL118:
 1561              	.L104:
 829:Middlewares/Third_Party/FreeRTOS/Source/timers.c **** 					break;
 1562              		.loc 1 829 6 view .LVU421
 829:Middlewares/Third_Party/FreeRTOS/Source/timers.c **** 					break;
 1563              		.loc 1 829 24 is_stmt 0 view .LVU422
 1564 00a8 94F82830 		ldrb	r3, [r4, #40]	@ zero_extendqisi2
 1565 00ac 23F00103 		bic	r3, r3, #1
 1566 00b0 84F82830 		strb	r3, [r4, #40]
 830:Middlewares/Third_Party/FreeRTOS/Source/timers.c **** 
 1567              		.loc 1 830 6 is_stmt 1 view .LVU423
 1568 00b4 AEE7     		b	.L99
 1569              	.L102:
 834:Middlewares/Third_Party/FreeRTOS/Source/timers.c **** 					pxTimer->xTimerPeriodInTicks = xMessage.u.xTimerParameters.xMessageValue;
 1570              		.loc 1 834 6 view .LVU424
 834:Middlewares/Third_Party/FreeRTOS/Source/timers.c **** 					pxTimer->xTimerPeriodInTicks = xMessage.u.xTimerParameters.xMessageValue;
 1571              		.loc 1 834 24 is_stmt 0 view .LVU425
 1572 00b6 94F82830 		ldrb	r3, [r4, #40]	@ zero_extendqisi2
 1573 00ba 43F00103 		orr	r3, r3, #1
 1574 00be 84F82830 		strb	r3, [r4, #40]
 835:Middlewares/Third_Party/FreeRTOS/Source/timers.c **** 					configASSERT( ( pxTimer->xTimerPeriodInTicks > 0 ) );
 1575              		.loc 1 835 6 is_stmt 1 view .LVU426
 835:Middlewares/Third_Party/FreeRTOS/Source/timers.c **** 					configASSERT( ( pxTimer->xTimerPeriodInTicks > 0 ) );
 1576              		.loc 1 835 64 is_stmt 0 view .LVU427
 1577 00c2 0599     		ldr	r1, [sp, #20]
 835:Middlewares/Third_Party/FreeRTOS/Source/timers.c **** 					configASSERT( ( pxTimer->xTimerPeriodInTicks > 0 ) );
 1578              		.loc 1 835 35 view .LVU428
 1579 00c4 A161     		str	r1, [r4, #24]
 836:Middlewares/Third_Party/FreeRTOS/Source/timers.c **** 
 1580              		.loc 1 836 6 is_stmt 1 view .LVU429
 1581 00c6 31B1     		cbz	r1, .L117
 836:Middlewares/Third_Party/FreeRTOS/Source/timers.c **** 
 1582              		.loc 1 836 58 discriminator 2 view .LVU430
 844:Middlewares/Third_Party/FreeRTOS/Source/timers.c **** 					break;
 1583              		.loc 1 844 6 discriminator 2 view .LVU431
 844:Middlewares/Third_Party/FreeRTOS/Source/timers.c **** 					break;
 1584              		.loc 1 844 15 is_stmt 0 discriminator 2 view .LVU432
 1585 00c8 0346     		mov	r3, r0
 1586 00ca 0246     		mov	r2, r0
 1587 00cc 0144     		add	r1, r1, r0
 1588 00ce 2046     		mov	r0, r4
 1589              	.LVL119:
 844:Middlewares/Third_Party/FreeRTOS/Source/timers.c **** 					break;
 1590              		.loc 1 844 15 discriminator 2 view .LVU433
 1591 00d0 FFF7FEFF 		bl	prvInsertTimerInActiveList
 1592              	.LVL120:
 845:Middlewares/Third_Party/FreeRTOS/Source/timers.c **** 
ARM GAS  /tmp/ccApgZAB.s 			page 56


 1593              		.loc 1 845 6 is_stmt 1 discriminator 2 view .LVU434
 1594 00d4 9EE7     		b	.L99
 1595              	.LVL121:
 1596              	.L117:
 836:Middlewares/Third_Party/FreeRTOS/Source/timers.c **** 
 1597              		.loc 1 836 6 view .LVU435
 1598              	.LBB65:
 1599              	.LBI65:
 191:Middlewares/Third_Party/FreeRTOS/Source/portable/GCC/ARM_CM4F/portmacro.h **** {
 1600              		.loc 2 191 30 view .LVU436
 1601              	.LBB66:
 193:Middlewares/Third_Party/FreeRTOS/Source/portable/GCC/ARM_CM4F/portmacro.h **** 
 1602              		.loc 2 193 1 view .LVU437
 1603              		.loc 2 195 2 view .LVU438
 1604              		.syntax unified
 1605              	@ 195 "Middlewares/Third_Party/FreeRTOS/Source/portable/GCC/ARM_CM4F/portmacro.h" 1
 1606 00d6 4FF05003 			mov r3, #80												
 1607 00da 83F31188 		msr basepri, r3											
 1608 00de BFF36F8F 		isb														
 1609 00e2 BFF34F8F 		dsb														
 1610              	
 1611              	@ 0 "" 2
 1612              	.LVL122:
 1613              		.thumb
 1614              		.syntax unified
 1615              	.L110:
 1616              		.loc 2 195 2 is_stmt 0 view .LVU439
 1617              	.LBE66:
 1618              	.LBE65:
 836:Middlewares/Third_Party/FreeRTOS/Source/timers.c **** 
 1619              		.loc 1 836 6 is_stmt 1 discriminator 5 view .LVU440
 836:Middlewares/Third_Party/FreeRTOS/Source/timers.c **** 
 1620              		.loc 1 836 6 discriminator 5 view .LVU441
 836:Middlewares/Third_Party/FreeRTOS/Source/timers.c **** 
 1621              		.loc 1 836 6 discriminator 5 view .LVU442
 1622 00e6 FEE7     		b	.L110
 1623              	.L106:
 853:Middlewares/Third_Party/FreeRTOS/Source/timers.c **** 						{
 1624              		.loc 1 853 7 view .LVU443
 853:Middlewares/Third_Party/FreeRTOS/Source/timers.c **** 						{
 1625              		.loc 1 853 20 is_stmt 0 view .LVU444
 1626 00e8 94F82830 		ldrb	r3, [r4, #40]	@ zero_extendqisi2
 853:Middlewares/Third_Party/FreeRTOS/Source/timers.c **** 						{
 1627              		.loc 1 853 9 view .LVU445
 1628 00ec 13F0020F 		tst	r3, #2
 1629 00f0 04D0     		beq	.L118
 859:Middlewares/Third_Party/FreeRTOS/Source/timers.c **** 						}
 1630              		.loc 1 859 8 is_stmt 1 view .LVU446
 859:Middlewares/Third_Party/FreeRTOS/Source/timers.c **** 						}
 1631              		.loc 1 859 26 is_stmt 0 view .LVU447
 1632 00f2 23F00103 		bic	r3, r3, #1
 1633 00f6 84F82830 		strb	r3, [r4, #40]
 1634 00fa 8BE7     		b	.L99
 1635              	.L118:
 855:Middlewares/Third_Party/FreeRTOS/Source/timers.c **** 						}
 1636              		.loc 1 855 8 is_stmt 1 view .LVU448
 1637 00fc 2046     		mov	r0, r4
ARM GAS  /tmp/ccApgZAB.s 			page 57


 1638              	.LVL123:
 855:Middlewares/Third_Party/FreeRTOS/Source/timers.c **** 						}
 1639              		.loc 1 855 8 is_stmt 0 view .LVU449
 1640 00fe FFF7FEFF 		bl	vPortFree
 1641              	.LVL124:
 1642 0102 87E7     		b	.L99
 1643              	.LVL125:
 1644              	.L115:
 879:Middlewares/Third_Party/FreeRTOS/Source/timers.c **** /*-----------------------------------------------------------*/
 1645              		.loc 1 879 1 view .LVU450
 1646 0104 08B0     		add	sp, sp, #32
 1647              	.LCFI36:
 1648              		.cfi_def_cfa_offset 8
 1649              		@ sp needed
 1650 0106 10BD     		pop	{r4, pc}
 1651              	.L120:
 1652              		.align	2
 1653              	.L119:
 1654 0108 00000000 		.word	.LANCHOR2
 1655              		.cfi_endproc
 1656              	.LFE21:
 1658              		.section	.text.prvTimerTask,"ax",%progbits
 1659              		.align	1
 1660              		.syntax unified
 1661              		.thumb
 1662              		.thumb_func
 1663              		.fpu fpv5-d16
 1665              	prvTimerTask:
 1666              	.LFB16:
 549:Middlewares/Third_Party/FreeRTOS/Source/timers.c **** TickType_t xNextExpireTime;
 1667              		.loc 1 549 1 is_stmt 1 view -0
 1668              		.cfi_startproc
 1669              		@ args = 0, pretend = 0, frame = 8
 1670              		@ frame_needed = 0, uses_anonymous_args = 0
 1671              	.LVL126:
 549:Middlewares/Third_Party/FreeRTOS/Source/timers.c **** TickType_t xNextExpireTime;
 1672              		.loc 1 549 1 is_stmt 0 view .LVU452
 1673 0000 00B5     		push	{lr}
 1674              	.LCFI37:
 1675              		.cfi_def_cfa_offset 4
 1676              		.cfi_offset 14, -4
 1677 0002 83B0     		sub	sp, sp, #12
 1678              	.LCFI38:
 1679              		.cfi_def_cfa_offset 16
 1680              	.LVL127:
 1681              	.L122:
 550:Middlewares/Third_Party/FreeRTOS/Source/timers.c **** BaseType_t xListWasEmpty;
 1682              		.loc 1 550 1 is_stmt 1 discriminator 1 view .LVU453
 551:Middlewares/Third_Party/FreeRTOS/Source/timers.c **** 
 1683              		.loc 1 551 1 discriminator 1 view .LVU454
 554:Middlewares/Third_Party/FreeRTOS/Source/timers.c **** 
 1684              		.loc 1 554 2 discriminator 1 view .LVU455
 568:Middlewares/Third_Party/FreeRTOS/Source/timers.c **** 	{
 1685              		.loc 1 568 2 discriminator 1 view .LVU456
 572:Middlewares/Third_Party/FreeRTOS/Source/timers.c **** 
 1686              		.loc 1 572 3 discriminator 1 view .LVU457
 572:Middlewares/Third_Party/FreeRTOS/Source/timers.c **** 
ARM GAS  /tmp/ccApgZAB.s 			page 58


 1687              		.loc 1 572 21 is_stmt 0 discriminator 1 view .LVU458
 1688 0004 01A8     		add	r0, sp, #4
 1689 0006 FFF7FEFF 		bl	prvGetNextExpireTime
 1690              	.LVL128:
 576:Middlewares/Third_Party/FreeRTOS/Source/timers.c **** 
 1691              		.loc 1 576 3 is_stmt 1 discriminator 1 view .LVU459
 1692 000a 0199     		ldr	r1, [sp, #4]
 1693 000c FFF7FEFF 		bl	prvProcessTimerOrBlockTask
 1694              	.LVL129:
 579:Middlewares/Third_Party/FreeRTOS/Source/timers.c **** 	}
 1695              		.loc 1 579 3 discriminator 1 view .LVU460
 1696 0010 FFF7FEFF 		bl	prvProcessReceivedCommands
 1697              	.LVL130:
 568:Middlewares/Third_Party/FreeRTOS/Source/timers.c **** 	{
 1698              		.loc 1 568 8 discriminator 1 view .LVU461
 1699 0014 F6E7     		b	.L122
 1700              		.cfi_endproc
 1701              	.LFE16:
 1703              		.section	.text.xTimerGetTimerDaemonTaskHandle,"ax",%progbits
 1704              		.align	1
 1705              		.global	xTimerGetTimerDaemonTaskHandle
 1706              		.syntax unified
 1707              		.thumb
 1708              		.thumb_func
 1709              		.fpu fpv5-d16
 1711              	xTimerGetTimerDaemonTaskHandle:
 1712              	.LFB9:
 425:Middlewares/Third_Party/FreeRTOS/Source/timers.c **** 	/* If xTimerGetTimerDaemonTaskHandle() is called before the scheduler has been
 1713              		.loc 1 425 1 view -0
 1714              		.cfi_startproc
 1715              		@ args = 0, pretend = 0, frame = 0
 1716              		@ frame_needed = 0, uses_anonymous_args = 0
 1717              		@ link register save eliminated.
 428:Middlewares/Third_Party/FreeRTOS/Source/timers.c **** 	return xTimerTaskHandle;
 1718              		.loc 1 428 2 view .LVU463
 1719 0000 064B     		ldr	r3, .L128
 1720 0002 1868     		ldr	r0, [r3]
 1721 0004 00B1     		cbz	r0, .L127
 430:Middlewares/Third_Party/FreeRTOS/Source/timers.c **** /*-----------------------------------------------------------*/
 1722              		.loc 1 430 1 is_stmt 0 view .LVU464
 1723 0006 7047     		bx	lr
 1724              	.L127:
 428:Middlewares/Third_Party/FreeRTOS/Source/timers.c **** 	return xTimerTaskHandle;
 1725              		.loc 1 428 2 is_stmt 1 view .LVU465
 1726              	.LBB67:
 1727              	.LBI67:
 191:Middlewares/Third_Party/FreeRTOS/Source/portable/GCC/ARM_CM4F/portmacro.h **** {
 1728              		.loc 2 191 30 view .LVU466
 1729              	.LBB68:
 193:Middlewares/Third_Party/FreeRTOS/Source/portable/GCC/ARM_CM4F/portmacro.h **** 
 1730              		.loc 2 193 1 view .LVU467
 1731              		.loc 2 195 2 view .LVU468
 1732              		.syntax unified
 1733              	@ 195 "Middlewares/Third_Party/FreeRTOS/Source/portable/GCC/ARM_CM4F/portmacro.h" 1
 1734 0008 4FF05003 			mov r3, #80												
 1735 000c 83F31188 		msr basepri, r3											
 1736 0010 BFF36F8F 		isb														
ARM GAS  /tmp/ccApgZAB.s 			page 59


 1737 0014 BFF34F8F 		dsb														
 1738              	
 1739              	@ 0 "" 2
 1740              	.LVL131:
 1741              		.thumb
 1742              		.syntax unified
 1743              	.L126:
 1744              		.loc 2 195 2 is_stmt 0 view .LVU469
 1745              	.LBE68:
 1746              	.LBE67:
 428:Middlewares/Third_Party/FreeRTOS/Source/timers.c **** 	return xTimerTaskHandle;
 1747              		.loc 1 428 2 is_stmt 1 discriminator 1 view .LVU470
 428:Middlewares/Third_Party/FreeRTOS/Source/timers.c **** 	return xTimerTaskHandle;
 1748              		.loc 1 428 2 discriminator 1 view .LVU471
 428:Middlewares/Third_Party/FreeRTOS/Source/timers.c **** 	return xTimerTaskHandle;
 1749              		.loc 1 428 2 discriminator 1 view .LVU472
 1750 0018 FEE7     		b	.L126
 1751              	.L129:
 1752 001a 00BF     		.align	2
 1753              	.L128:
 1754 001c 00000000 		.word	.LANCHOR7
 1755              		.cfi_endproc
 1756              	.LFE9:
 1758              		.section	.text.xTimerGetPeriod,"ax",%progbits
 1759              		.align	1
 1760              		.global	xTimerGetPeriod
 1761              		.syntax unified
 1762              		.thumb
 1763              		.thumb_func
 1764              		.fpu fpv5-d16
 1766              	xTimerGetPeriod:
 1767              	.LVL132:
 1768              	.LFB10:
 434:Middlewares/Third_Party/FreeRTOS/Source/timers.c **** Timer_t *pxTimer = xTimer;
 1769              		.loc 1 434 1 view -0
 1770              		.cfi_startproc
 1771              		@ args = 0, pretend = 0, frame = 0
 1772              		@ frame_needed = 0, uses_anonymous_args = 0
 1773              		@ link register save eliminated.
 435:Middlewares/Third_Party/FreeRTOS/Source/timers.c **** 
 1774              		.loc 1 435 1 view .LVU474
 437:Middlewares/Third_Party/FreeRTOS/Source/timers.c **** 	return pxTimer->xTimerPeriodInTicks;
 1775              		.loc 1 437 2 view .LVU475
 1776 0000 08B1     		cbz	r0, .L133
 437:Middlewares/Third_Party/FreeRTOS/Source/timers.c **** 	return pxTimer->xTimerPeriodInTicks;
 1777              		.loc 1 437 24 discriminator 2 view .LVU476
 438:Middlewares/Third_Party/FreeRTOS/Source/timers.c **** }
 1778              		.loc 1 438 2 discriminator 2 view .LVU477
 439:Middlewares/Third_Party/FreeRTOS/Source/timers.c **** /*-----------------------------------------------------------*/
 1779              		.loc 1 439 1 is_stmt 0 discriminator 2 view .LVU478
 1780 0002 8069     		ldr	r0, [r0, #24]
 1781              	.LVL133:
 439:Middlewares/Third_Party/FreeRTOS/Source/timers.c **** /*-----------------------------------------------------------*/
 1782              		.loc 1 439 1 discriminator 2 view .LVU479
 1783 0004 7047     		bx	lr
 1784              	.LVL134:
 1785              	.L133:
ARM GAS  /tmp/ccApgZAB.s 			page 60


 437:Middlewares/Third_Party/FreeRTOS/Source/timers.c **** 	return pxTimer->xTimerPeriodInTicks;
 1786              		.loc 1 437 2 is_stmt 1 view .LVU480
 1787              	.LBB69:
 1788              	.LBI69:
 191:Middlewares/Third_Party/FreeRTOS/Source/portable/GCC/ARM_CM4F/portmacro.h **** {
 1789              		.loc 2 191 30 view .LVU481
 1790              	.LBB70:
 193:Middlewares/Third_Party/FreeRTOS/Source/portable/GCC/ARM_CM4F/portmacro.h **** 
 1791              		.loc 2 193 1 view .LVU482
 1792              		.loc 2 195 2 view .LVU483
 1793              		.syntax unified
 1794              	@ 195 "Middlewares/Third_Party/FreeRTOS/Source/portable/GCC/ARM_CM4F/portmacro.h" 1
 1795 0006 4FF05003 			mov r3, #80												
 1796 000a 83F31188 		msr basepri, r3											
 1797 000e BFF36F8F 		isb														
 1798 0012 BFF34F8F 		dsb														
 1799              	
 1800              	@ 0 "" 2
 1801              	.LVL135:
 1802              		.thumb
 1803              		.syntax unified
 1804              	.L132:
 1805              		.loc 2 195 2 is_stmt 0 view .LVU484
 1806              	.LBE70:
 1807              	.LBE69:
 437:Middlewares/Third_Party/FreeRTOS/Source/timers.c **** 	return pxTimer->xTimerPeriodInTicks;
 1808              		.loc 1 437 2 is_stmt 1 discriminator 1 view .LVU485
 437:Middlewares/Third_Party/FreeRTOS/Source/timers.c **** 	return pxTimer->xTimerPeriodInTicks;
 1809              		.loc 1 437 2 discriminator 1 view .LVU486
 437:Middlewares/Third_Party/FreeRTOS/Source/timers.c **** 	return pxTimer->xTimerPeriodInTicks;
 1810              		.loc 1 437 2 discriminator 1 view .LVU487
 1811 0016 FEE7     		b	.L132
 1812              		.cfi_endproc
 1813              	.LFE10:
 1815              		.section	.text.vTimerSetReloadMode,"ax",%progbits
 1816              		.align	1
 1817              		.global	vTimerSetReloadMode
 1818              		.syntax unified
 1819              		.thumb
 1820              		.thumb_func
 1821              		.fpu fpv5-d16
 1823              	vTimerSetReloadMode:
 1824              	.LVL136:
 1825              	.LFB11:
 443:Middlewares/Third_Party/FreeRTOS/Source/timers.c **** Timer_t * pxTimer =  xTimer;
 1826              		.loc 1 443 1 view -0
 1827              		.cfi_startproc
 1828              		@ args = 0, pretend = 0, frame = 0
 1829              		@ frame_needed = 0, uses_anonymous_args = 0
 443:Middlewares/Third_Party/FreeRTOS/Source/timers.c **** Timer_t * pxTimer =  xTimer;
 1830              		.loc 1 443 1 is_stmt 0 view .LVU489
 1831 0000 38B5     		push	{r3, r4, r5, lr}
 1832              	.LCFI39:
 1833              		.cfi_def_cfa_offset 16
 1834              		.cfi_offset 3, -16
 1835              		.cfi_offset 4, -12
 1836              		.cfi_offset 5, -8
ARM GAS  /tmp/ccApgZAB.s 			page 61


 1837              		.cfi_offset 14, -4
 444:Middlewares/Third_Party/FreeRTOS/Source/timers.c **** 
 1838              		.loc 1 444 1 is_stmt 1 view .LVU490
 1839              	.LVL137:
 446:Middlewares/Third_Party/FreeRTOS/Source/timers.c **** 	taskENTER_CRITICAL();
 1840              		.loc 1 446 2 view .LVU491
 1841 0002 68B1     		cbz	r0, .L140
 1842 0004 0D46     		mov	r5, r1
 1843 0006 0446     		mov	r4, r0
 446:Middlewares/Third_Party/FreeRTOS/Source/timers.c **** 	taskENTER_CRITICAL();
 1844              		.loc 1 446 24 discriminator 2 view .LVU492
 447:Middlewares/Third_Party/FreeRTOS/Source/timers.c **** 	{
 1845              		.loc 1 447 2 discriminator 2 view .LVU493
 1846 0008 FFF7FEFF 		bl	vPortEnterCritical
 1847              	.LVL138:
 449:Middlewares/Third_Party/FreeRTOS/Source/timers.c **** 		{
 1848              		.loc 1 449 3 discriminator 2 view .LVU494
 449:Middlewares/Third_Party/FreeRTOS/Source/timers.c **** 		{
 1849              		.loc 1 449 5 is_stmt 0 discriminator 2 view .LVU495
 1850 000c 8DB1     		cbz	r5, .L137
 451:Middlewares/Third_Party/FreeRTOS/Source/timers.c **** 		}
 1851              		.loc 1 451 4 is_stmt 1 view .LVU496
 451:Middlewares/Third_Party/FreeRTOS/Source/timers.c **** 		}
 1852              		.loc 1 451 22 is_stmt 0 view .LVU497
 1853 000e 94F82830 		ldrb	r3, [r4, #40]	@ zero_extendqisi2
 1854 0012 43F00403 		orr	r3, r3, #4
 1855 0016 84F82830 		strb	r3, [r4, #40]
 1856              	.L138:
 458:Middlewares/Third_Party/FreeRTOS/Source/timers.c **** }
 1857              		.loc 1 458 2 is_stmt 1 view .LVU498
 1858 001a FFF7FEFF 		bl	vPortExitCritical
 1859              	.LVL139:
 459:Middlewares/Third_Party/FreeRTOS/Source/timers.c **** /*-----------------------------------------------------------*/
 1860              		.loc 1 459 1 is_stmt 0 view .LVU499
 1861 001e 38BD     		pop	{r3, r4, r5, pc}
 1862              	.LVL140:
 1863              	.L140:
 446:Middlewares/Third_Party/FreeRTOS/Source/timers.c **** 	taskENTER_CRITICAL();
 1864              		.loc 1 446 2 is_stmt 1 view .LVU500
 1865              	.LBB71:
 1866              	.LBI71:
 191:Middlewares/Third_Party/FreeRTOS/Source/portable/GCC/ARM_CM4F/portmacro.h **** {
 1867              		.loc 2 191 30 view .LVU501
 1868              	.LBB72:
 193:Middlewares/Third_Party/FreeRTOS/Source/portable/GCC/ARM_CM4F/portmacro.h **** 
 1869              		.loc 2 193 1 view .LVU502
 1870              		.loc 2 195 2 view .LVU503
 1871              		.syntax unified
 1872              	@ 195 "Middlewares/Third_Party/FreeRTOS/Source/portable/GCC/ARM_CM4F/portmacro.h" 1
 1873 0020 4FF05003 			mov r3, #80												
 1874 0024 83F31188 		msr basepri, r3											
 1875 0028 BFF36F8F 		isb														
 1876 002c BFF34F8F 		dsb														
 1877              	
 1878              	@ 0 "" 2
 1879              	.LVL141:
 1880              		.thumb
ARM GAS  /tmp/ccApgZAB.s 			page 62


 1881              		.syntax unified
 1882              	.L136:
 1883              		.loc 2 195 2 is_stmt 0 view .LVU504
 1884              	.LBE72:
 1885              	.LBE71:
 446:Middlewares/Third_Party/FreeRTOS/Source/timers.c **** 	taskENTER_CRITICAL();
 1886              		.loc 1 446 2 is_stmt 1 discriminator 1 view .LVU505
 446:Middlewares/Third_Party/FreeRTOS/Source/timers.c **** 	taskENTER_CRITICAL();
 1887              		.loc 1 446 2 discriminator 1 view .LVU506
 446:Middlewares/Third_Party/FreeRTOS/Source/timers.c **** 	taskENTER_CRITICAL();
 1888              		.loc 1 446 2 discriminator 1 view .LVU507
 1889 0030 FEE7     		b	.L136
 1890              	.LVL142:
 1891              	.L137:
 455:Middlewares/Third_Party/FreeRTOS/Source/timers.c **** 		}
 1892              		.loc 1 455 4 view .LVU508
 455:Middlewares/Third_Party/FreeRTOS/Source/timers.c **** 		}
 1893              		.loc 1 455 22 is_stmt 0 view .LVU509
 1894 0032 94F82830 		ldrb	r3, [r4, #40]	@ zero_extendqisi2
 1895 0036 23F00403 		bic	r3, r3, #4
 1896 003a 84F82830 		strb	r3, [r4, #40]
 1897 003e ECE7     		b	.L138
 1898              		.cfi_endproc
 1899              	.LFE11:
 1901              		.section	.text.uxTimerGetReloadMode,"ax",%progbits
 1902              		.align	1
 1903              		.global	uxTimerGetReloadMode
 1904              		.syntax unified
 1905              		.thumb
 1906              		.thumb_func
 1907              		.fpu fpv5-d16
 1909              	uxTimerGetReloadMode:
 1910              	.LVL143:
 1911              	.LFB12:
 463:Middlewares/Third_Party/FreeRTOS/Source/timers.c **** Timer_t * pxTimer =  xTimer;
 1912              		.loc 1 463 1 is_stmt 1 view -0
 1913              		.cfi_startproc
 1914              		@ args = 0, pretend = 0, frame = 0
 1915              		@ frame_needed = 0, uses_anonymous_args = 0
 464:Middlewares/Third_Party/FreeRTOS/Source/timers.c **** UBaseType_t uxReturn;
 1916              		.loc 1 464 1 view .LVU511
 465:Middlewares/Third_Party/FreeRTOS/Source/timers.c **** 
 1917              		.loc 1 465 1 view .LVU512
 467:Middlewares/Third_Party/FreeRTOS/Source/timers.c **** 	taskENTER_CRITICAL();
 1918              		.loc 1 467 2 view .LVU513
 1919 0000 68B1     		cbz	r0, .L148
 463:Middlewares/Third_Party/FreeRTOS/Source/timers.c **** Timer_t * pxTimer =  xTimer;
 1920              		.loc 1 463 1 is_stmt 0 discriminator 2 view .LVU514
 1921 0002 10B5     		push	{r4, lr}
 1922              	.LCFI40:
 1923              		.cfi_def_cfa_offset 8
 1924              		.cfi_offset 4, -8
 1925              		.cfi_offset 14, -4
 1926 0004 0446     		mov	r4, r0
 467:Middlewares/Third_Party/FreeRTOS/Source/timers.c **** 	taskENTER_CRITICAL();
 1927              		.loc 1 467 24 is_stmt 1 discriminator 2 view .LVU515
 468:Middlewares/Third_Party/FreeRTOS/Source/timers.c **** 	{
ARM GAS  /tmp/ccApgZAB.s 			page 63


 1928              		.loc 1 468 2 discriminator 2 view .LVU516
 1929 0006 FFF7FEFF 		bl	vPortEnterCritical
 1930              	.LVL144:
 470:Middlewares/Third_Party/FreeRTOS/Source/timers.c **** 		{
 1931              		.loc 1 470 3 discriminator 2 view .LVU517
 470:Middlewares/Third_Party/FreeRTOS/Source/timers.c **** 		{
 1932              		.loc 1 470 16 is_stmt 0 discriminator 2 view .LVU518
 1933 000a 94F82830 		ldrb	r3, [r4, #40]	@ zero_extendqisi2
 470:Middlewares/Third_Party/FreeRTOS/Source/timers.c **** 		{
 1934              		.loc 1 470 5 discriminator 2 view .LVU519
 1935 000e 13F0040F 		tst	r3, #4
 1936 0012 0DD1     		bne	.L145
 473:Middlewares/Third_Party/FreeRTOS/Source/timers.c **** 		}
 1937              		.loc 1 473 13 view .LVU520
 1938 0014 0024     		movs	r4, #0
 1939              	.LVL145:
 1940              	.L144:
 481:Middlewares/Third_Party/FreeRTOS/Source/timers.c **** 
 1941              		.loc 1 481 2 is_stmt 1 view .LVU521
 1942 0016 FFF7FEFF 		bl	vPortExitCritical
 1943              	.LVL146:
 483:Middlewares/Third_Party/FreeRTOS/Source/timers.c **** }
 1944              		.loc 1 483 2 view .LVU522
 484:Middlewares/Third_Party/FreeRTOS/Source/timers.c **** /*-----------------------------------------------------------*/
 1945              		.loc 1 484 1 is_stmt 0 view .LVU523
 1946 001a 2046     		mov	r0, r4
 1947 001c 10BD     		pop	{r4, pc}
 1948              	.LVL147:
 1949              	.L148:
 1950              	.LCFI41:
 1951              		.cfi_def_cfa_offset 0
 1952              		.cfi_restore 4
 1953              		.cfi_restore 14
 467:Middlewares/Third_Party/FreeRTOS/Source/timers.c **** 	taskENTER_CRITICAL();
 1954              		.loc 1 467 2 is_stmt 1 view .LVU524
 1955              	.LBB73:
 1956              	.LBI73:
 191:Middlewares/Third_Party/FreeRTOS/Source/portable/GCC/ARM_CM4F/portmacro.h **** {
 1957              		.loc 2 191 30 view .LVU525
 1958              	.LBB74:
 193:Middlewares/Third_Party/FreeRTOS/Source/portable/GCC/ARM_CM4F/portmacro.h **** 
 1959              		.loc 2 193 1 view .LVU526
 1960              		.loc 2 195 2 view .LVU527
 1961              		.syntax unified
 1962              	@ 195 "Middlewares/Third_Party/FreeRTOS/Source/portable/GCC/ARM_CM4F/portmacro.h" 1
 1963 001e 4FF05003 			mov r3, #80												
 1964 0022 83F31188 		msr basepri, r3											
 1965 0026 BFF36F8F 		isb														
 1966 002a BFF34F8F 		dsb														
 1967              	
 1968              	@ 0 "" 2
 1969              	.LVL148:
 1970              		.thumb
 1971              		.syntax unified
 1972              	.L143:
 1973              		.loc 2 195 2 is_stmt 0 view .LVU528
 1974              	.LBE74:
ARM GAS  /tmp/ccApgZAB.s 			page 64


 1975              	.LBE73:
 467:Middlewares/Third_Party/FreeRTOS/Source/timers.c **** 	taskENTER_CRITICAL();
 1976              		.loc 1 467 2 is_stmt 1 discriminator 1 view .LVU529
 467:Middlewares/Third_Party/FreeRTOS/Source/timers.c **** 	taskENTER_CRITICAL();
 1977              		.loc 1 467 2 discriminator 1 view .LVU530
 467:Middlewares/Third_Party/FreeRTOS/Source/timers.c **** 	taskENTER_CRITICAL();
 1978              		.loc 1 467 2 discriminator 1 view .LVU531
 1979 002e FEE7     		b	.L143
 1980              	.LVL149:
 1981              	.L145:
 1982              	.LCFI42:
 1983              		.cfi_def_cfa_offset 8
 1984              		.cfi_offset 4, -8
 1985              		.cfi_offset 14, -4
 478:Middlewares/Third_Party/FreeRTOS/Source/timers.c **** 		}
 1986              		.loc 1 478 13 is_stmt 0 view .LVU532
 1987 0030 0124     		movs	r4, #1
 1988              	.LVL150:
 478:Middlewares/Third_Party/FreeRTOS/Source/timers.c **** 		}
 1989              		.loc 1 478 13 view .LVU533
 1990 0032 F0E7     		b	.L144
 1991              		.cfi_endproc
 1992              	.LFE12:
 1994              		.section	.text.xTimerGetExpiryTime,"ax",%progbits
 1995              		.align	1
 1996              		.global	xTimerGetExpiryTime
 1997              		.syntax unified
 1998              		.thumb
 1999              		.thumb_func
 2000              		.fpu fpv5-d16
 2002              	xTimerGetExpiryTime:
 2003              	.LVL151:
 2004              	.LFB13:
 488:Middlewares/Third_Party/FreeRTOS/Source/timers.c **** Timer_t * pxTimer =  xTimer;
 2005              		.loc 1 488 1 is_stmt 1 view -0
 2006              		.cfi_startproc
 2007              		@ args = 0, pretend = 0, frame = 0
 2008              		@ frame_needed = 0, uses_anonymous_args = 0
 2009              		@ link register save eliminated.
 489:Middlewares/Third_Party/FreeRTOS/Source/timers.c **** TickType_t xReturn;
 2010              		.loc 1 489 1 view .LVU535
 490:Middlewares/Third_Party/FreeRTOS/Source/timers.c **** 
 2011              		.loc 1 490 1 view .LVU536
 492:Middlewares/Third_Party/FreeRTOS/Source/timers.c **** 	xReturn = listGET_LIST_ITEM_VALUE( &( pxTimer->xTimerListItem ) );
 2012              		.loc 1 492 2 view .LVU537
 2013 0000 08B1     		cbz	r0, .L152
 492:Middlewares/Third_Party/FreeRTOS/Source/timers.c **** 	xReturn = listGET_LIST_ITEM_VALUE( &( pxTimer->xTimerListItem ) );
 2014              		.loc 1 492 24 discriminator 2 view .LVU538
 493:Middlewares/Third_Party/FreeRTOS/Source/timers.c **** 	return xReturn;
 2015              		.loc 1 493 2 discriminator 2 view .LVU539
 2016              	.LVL152:
 494:Middlewares/Third_Party/FreeRTOS/Source/timers.c **** }
 2017              		.loc 1 494 2 discriminator 2 view .LVU540
 495:Middlewares/Third_Party/FreeRTOS/Source/timers.c **** /*-----------------------------------------------------------*/
 2018              		.loc 1 495 1 is_stmt 0 discriminator 2 view .LVU541
 2019 0002 4068     		ldr	r0, [r0, #4]
 2020              	.LVL153:
ARM GAS  /tmp/ccApgZAB.s 			page 65


 495:Middlewares/Third_Party/FreeRTOS/Source/timers.c **** /*-----------------------------------------------------------*/
 2021              		.loc 1 495 1 discriminator 2 view .LVU542
 2022 0004 7047     		bx	lr
 2023              	.LVL154:
 2024              	.L152:
 492:Middlewares/Third_Party/FreeRTOS/Source/timers.c **** 	xReturn = listGET_LIST_ITEM_VALUE( &( pxTimer->xTimerListItem ) );
 2025              		.loc 1 492 2 is_stmt 1 view .LVU543
 2026              	.LBB75:
 2027              	.LBI75:
 191:Middlewares/Third_Party/FreeRTOS/Source/portable/GCC/ARM_CM4F/portmacro.h **** {
 2028              		.loc 2 191 30 view .LVU544
 2029              	.LBB76:
 193:Middlewares/Third_Party/FreeRTOS/Source/portable/GCC/ARM_CM4F/portmacro.h **** 
 2030              		.loc 2 193 1 view .LVU545
 2031              		.loc 2 195 2 view .LVU546
 2032              		.syntax unified
 2033              	@ 195 "Middlewares/Third_Party/FreeRTOS/Source/portable/GCC/ARM_CM4F/portmacro.h" 1
 2034 0006 4FF05003 			mov r3, #80												
 2035 000a 83F31188 		msr basepri, r3											
 2036 000e BFF36F8F 		isb														
 2037 0012 BFF34F8F 		dsb														
 2038              	
 2039              	@ 0 "" 2
 2040              	.LVL155:
 2041              		.thumb
 2042              		.syntax unified
 2043              	.L151:
 2044              		.loc 2 195 2 is_stmt 0 view .LVU547
 2045              	.LBE76:
 2046              	.LBE75:
 492:Middlewares/Third_Party/FreeRTOS/Source/timers.c **** 	xReturn = listGET_LIST_ITEM_VALUE( &( pxTimer->xTimerListItem ) );
 2047              		.loc 1 492 2 is_stmt 1 discriminator 1 view .LVU548
 492:Middlewares/Third_Party/FreeRTOS/Source/timers.c **** 	xReturn = listGET_LIST_ITEM_VALUE( &( pxTimer->xTimerListItem ) );
 2048              		.loc 1 492 2 discriminator 1 view .LVU549
 492:Middlewares/Third_Party/FreeRTOS/Source/timers.c **** 	xReturn = listGET_LIST_ITEM_VALUE( &( pxTimer->xTimerListItem ) );
 2049              		.loc 1 492 2 discriminator 1 view .LVU550
 2050 0016 FEE7     		b	.L151
 2051              		.cfi_endproc
 2052              	.LFE13:
 2054              		.section	.text.pcTimerGetName,"ax",%progbits
 2055              		.align	1
 2056              		.global	pcTimerGetName
 2057              		.syntax unified
 2058              		.thumb
 2059              		.thumb_func
 2060              		.fpu fpv5-d16
 2062              	pcTimerGetName:
 2063              	.LVL156:
 2064              	.LFB14:
 499:Middlewares/Third_Party/FreeRTOS/Source/timers.c **** Timer_t *pxTimer = xTimer;
 2065              		.loc 1 499 1 view -0
 2066              		.cfi_startproc
 2067              		@ args = 0, pretend = 0, frame = 0
 2068              		@ frame_needed = 0, uses_anonymous_args = 0
 2069              		@ link register save eliminated.
 500:Middlewares/Third_Party/FreeRTOS/Source/timers.c **** 
 2070              		.loc 1 500 1 view .LVU552
ARM GAS  /tmp/ccApgZAB.s 			page 66


 502:Middlewares/Third_Party/FreeRTOS/Source/timers.c **** 	return pxTimer->pcTimerName;
 2071              		.loc 1 502 2 view .LVU553
 2072 0000 08B1     		cbz	r0, .L156
 502:Middlewares/Third_Party/FreeRTOS/Source/timers.c **** 	return pxTimer->pcTimerName;
 2073              		.loc 1 502 24 discriminator 2 view .LVU554
 503:Middlewares/Third_Party/FreeRTOS/Source/timers.c **** }
 2074              		.loc 1 503 2 discriminator 2 view .LVU555
 504:Middlewares/Third_Party/FreeRTOS/Source/timers.c **** /*-----------------------------------------------------------*/
 2075              		.loc 1 504 1 is_stmt 0 discriminator 2 view .LVU556
 2076 0002 0068     		ldr	r0, [r0]
 2077              	.LVL157:
 504:Middlewares/Third_Party/FreeRTOS/Source/timers.c **** /*-----------------------------------------------------------*/
 2078              		.loc 1 504 1 discriminator 2 view .LVU557
 2079 0004 7047     		bx	lr
 2080              	.LVL158:
 2081              	.L156:
 502:Middlewares/Third_Party/FreeRTOS/Source/timers.c **** 	return pxTimer->pcTimerName;
 2082              		.loc 1 502 2 is_stmt 1 view .LVU558
 2083              	.LBB77:
 2084              	.LBI77:
 191:Middlewares/Third_Party/FreeRTOS/Source/portable/GCC/ARM_CM4F/portmacro.h **** {
 2085              		.loc 2 191 30 view .LVU559
 2086              	.LBB78:
 193:Middlewares/Third_Party/FreeRTOS/Source/portable/GCC/ARM_CM4F/portmacro.h **** 
 2087              		.loc 2 193 1 view .LVU560
 2088              		.loc 2 195 2 view .LVU561
 2089              		.syntax unified
 2090              	@ 195 "Middlewares/Third_Party/FreeRTOS/Source/portable/GCC/ARM_CM4F/portmacro.h" 1
 2091 0006 4FF05003 			mov r3, #80												
 2092 000a 83F31188 		msr basepri, r3											
 2093 000e BFF36F8F 		isb														
 2094 0012 BFF34F8F 		dsb														
 2095              	
 2096              	@ 0 "" 2
 2097              	.LVL159:
 2098              		.thumb
 2099              		.syntax unified
 2100              	.L155:
 2101              		.loc 2 195 2 is_stmt 0 view .LVU562
 2102              	.LBE78:
 2103              	.LBE77:
 502:Middlewares/Third_Party/FreeRTOS/Source/timers.c **** 	return pxTimer->pcTimerName;
 2104              		.loc 1 502 2 is_stmt 1 discriminator 1 view .LVU563
 502:Middlewares/Third_Party/FreeRTOS/Source/timers.c **** 	return pxTimer->pcTimerName;
 2105              		.loc 1 502 2 discriminator 1 view .LVU564
 502:Middlewares/Third_Party/FreeRTOS/Source/timers.c **** 	return pxTimer->pcTimerName;
 2106              		.loc 1 502 2 discriminator 1 view .LVU565
 2107 0016 FEE7     		b	.L155
 2108              		.cfi_endproc
 2109              	.LFE14:
 2111              		.section	.text.xTimerIsTimerActive,"ax",%progbits
 2112              		.align	1
 2113              		.global	xTimerIsTimerActive
 2114              		.syntax unified
 2115              		.thumb
 2116              		.thumb_func
 2117              		.fpu fpv5-d16
ARM GAS  /tmp/ccApgZAB.s 			page 67


 2119              	xTimerIsTimerActive:
 2120              	.LVL160:
 2121              	.LFB24:
 990:Middlewares/Third_Party/FreeRTOS/Source/timers.c **** /*-----------------------------------------------------------*/
 991:Middlewares/Third_Party/FreeRTOS/Source/timers.c **** 
 992:Middlewares/Third_Party/FreeRTOS/Source/timers.c **** BaseType_t xTimerIsTimerActive( TimerHandle_t xTimer )
 993:Middlewares/Third_Party/FreeRTOS/Source/timers.c **** {
 2122              		.loc 1 993 1 view -0
 2123              		.cfi_startproc
 2124              		@ args = 0, pretend = 0, frame = 0
 2125              		@ frame_needed = 0, uses_anonymous_args = 0
 994:Middlewares/Third_Party/FreeRTOS/Source/timers.c **** BaseType_t xReturn;
 2126              		.loc 1 994 1 view .LVU567
 995:Middlewares/Third_Party/FreeRTOS/Source/timers.c **** Timer_t *pxTimer = xTimer;
 2127              		.loc 1 995 1 view .LVU568
 996:Middlewares/Third_Party/FreeRTOS/Source/timers.c **** 
 997:Middlewares/Third_Party/FreeRTOS/Source/timers.c **** 	configASSERT( xTimer );
 2128              		.loc 1 997 2 view .LVU569
 2129 0000 68B1     		cbz	r0, .L164
 993:Middlewares/Third_Party/FreeRTOS/Source/timers.c **** BaseType_t xReturn;
 2130              		.loc 1 993 1 is_stmt 0 discriminator 2 view .LVU570
 2131 0002 10B5     		push	{r4, lr}
 2132              	.LCFI43:
 2133              		.cfi_def_cfa_offset 8
 2134              		.cfi_offset 4, -8
 2135              		.cfi_offset 14, -4
 2136 0004 0446     		mov	r4, r0
 2137              		.loc 1 997 24 is_stmt 1 discriminator 2 view .LVU571
 998:Middlewares/Third_Party/FreeRTOS/Source/timers.c **** 
 999:Middlewares/Third_Party/FreeRTOS/Source/timers.c **** 	/* Is the timer in the list of active timers? */
1000:Middlewares/Third_Party/FreeRTOS/Source/timers.c **** 	taskENTER_CRITICAL();
 2138              		.loc 1 1000 2 discriminator 2 view .LVU572
 2139 0006 FFF7FEFF 		bl	vPortEnterCritical
 2140              	.LVL161:
1001:Middlewares/Third_Party/FreeRTOS/Source/timers.c **** 	{
1002:Middlewares/Third_Party/FreeRTOS/Source/timers.c **** 		if( ( pxTimer->ucStatus & tmrSTATUS_IS_ACTIVE ) == 0 )
 2141              		.loc 1 1002 3 discriminator 2 view .LVU573
 2142              		.loc 1 1002 16 is_stmt 0 discriminator 2 view .LVU574
 2143 000a 94F82830 		ldrb	r3, [r4, #40]	@ zero_extendqisi2
 2144              		.loc 1 1002 5 discriminator 2 view .LVU575
 2145 000e 13F0010F 		tst	r3, #1
 2146 0012 0DD1     		bne	.L161
1003:Middlewares/Third_Party/FreeRTOS/Source/timers.c **** 		{
1004:Middlewares/Third_Party/FreeRTOS/Source/timers.c **** 			xReturn = pdFALSE;
 2147              		.loc 1 1004 12 view .LVU576
 2148 0014 0024     		movs	r4, #0
 2149              	.LVL162:
 2150              	.L160:
1005:Middlewares/Third_Party/FreeRTOS/Source/timers.c **** 		}
1006:Middlewares/Third_Party/FreeRTOS/Source/timers.c **** 		else
1007:Middlewares/Third_Party/FreeRTOS/Source/timers.c **** 		{
1008:Middlewares/Third_Party/FreeRTOS/Source/timers.c **** 			xReturn = pdTRUE;
1009:Middlewares/Third_Party/FreeRTOS/Source/timers.c **** 		}
1010:Middlewares/Third_Party/FreeRTOS/Source/timers.c **** 	}
1011:Middlewares/Third_Party/FreeRTOS/Source/timers.c **** 	taskEXIT_CRITICAL();
 2151              		.loc 1 1011 2 is_stmt 1 view .LVU577
 2152 0016 FFF7FEFF 		bl	vPortExitCritical
ARM GAS  /tmp/ccApgZAB.s 			page 68


 2153              	.LVL163:
1012:Middlewares/Third_Party/FreeRTOS/Source/timers.c **** 
1013:Middlewares/Third_Party/FreeRTOS/Source/timers.c **** 	return xReturn;
 2154              		.loc 1 1013 2 view .LVU578
1014:Middlewares/Third_Party/FreeRTOS/Source/timers.c **** } /*lint !e818 Can't be pointer to const due to the typedef. */
 2155              		.loc 1 1014 1 is_stmt 0 view .LVU579
 2156 001a 2046     		mov	r0, r4
 2157 001c 10BD     		pop	{r4, pc}
 2158              	.LVL164:
 2159              	.L164:
 2160              	.LCFI44:
 2161              		.cfi_def_cfa_offset 0
 2162              		.cfi_restore 4
 2163              		.cfi_restore 14
 997:Middlewares/Third_Party/FreeRTOS/Source/timers.c **** 
 2164              		.loc 1 997 2 is_stmt 1 view .LVU580
 2165              	.LBB79:
 2166              	.LBI79:
 191:Middlewares/Third_Party/FreeRTOS/Source/portable/GCC/ARM_CM4F/portmacro.h **** {
 2167              		.loc 2 191 30 view .LVU581
 2168              	.LBB80:
 193:Middlewares/Third_Party/FreeRTOS/Source/portable/GCC/ARM_CM4F/portmacro.h **** 
 2169              		.loc 2 193 1 view .LVU582
 2170              		.loc 2 195 2 view .LVU583
 2171              		.syntax unified
 2172              	@ 195 "Middlewares/Third_Party/FreeRTOS/Source/portable/GCC/ARM_CM4F/portmacro.h" 1
 2173 001e 4FF05003 			mov r3, #80												
 2174 0022 83F31188 		msr basepri, r3											
 2175 0026 BFF36F8F 		isb														
 2176 002a BFF34F8F 		dsb														
 2177              	
 2178              	@ 0 "" 2
 2179              	.LVL165:
 2180              		.thumb
 2181              		.syntax unified
 2182              	.L159:
 2183              		.loc 2 195 2 is_stmt 0 view .LVU584
 2184              	.LBE80:
 2185              	.LBE79:
 997:Middlewares/Third_Party/FreeRTOS/Source/timers.c **** 
 2186              		.loc 1 997 2 is_stmt 1 discriminator 1 view .LVU585
 997:Middlewares/Third_Party/FreeRTOS/Source/timers.c **** 
 2187              		.loc 1 997 2 discriminator 1 view .LVU586
 997:Middlewares/Third_Party/FreeRTOS/Source/timers.c **** 
 2188              		.loc 1 997 2 discriminator 1 view .LVU587
 2189 002e FEE7     		b	.L159
 2190              	.LVL166:
 2191              	.L161:
 2192              	.LCFI45:
 2193              		.cfi_def_cfa_offset 8
 2194              		.cfi_offset 4, -8
 2195              		.cfi_offset 14, -4
1008:Middlewares/Third_Party/FreeRTOS/Source/timers.c **** 		}
 2196              		.loc 1 1008 12 is_stmt 0 view .LVU588
 2197 0030 0124     		movs	r4, #1
 2198              	.LVL167:
1008:Middlewares/Third_Party/FreeRTOS/Source/timers.c **** 		}
ARM GAS  /tmp/ccApgZAB.s 			page 69


 2199              		.loc 1 1008 12 view .LVU589
 2200 0032 F0E7     		b	.L160
 2201              		.cfi_endproc
 2202              	.LFE24:
 2204              		.section	.text.pvTimerGetTimerID,"ax",%progbits
 2205              		.align	1
 2206              		.global	pvTimerGetTimerID
 2207              		.syntax unified
 2208              		.thumb
 2209              		.thumb_func
 2210              		.fpu fpv5-d16
 2212              	pvTimerGetTimerID:
 2213              	.LVL168:
 2214              	.LFB25:
1015:Middlewares/Third_Party/FreeRTOS/Source/timers.c **** /*-----------------------------------------------------------*/
1016:Middlewares/Third_Party/FreeRTOS/Source/timers.c **** 
1017:Middlewares/Third_Party/FreeRTOS/Source/timers.c **** void *pvTimerGetTimerID( const TimerHandle_t xTimer )
1018:Middlewares/Third_Party/FreeRTOS/Source/timers.c **** {
 2215              		.loc 1 1018 1 is_stmt 1 view -0
 2216              		.cfi_startproc
 2217              		@ args = 0, pretend = 0, frame = 0
 2218              		@ frame_needed = 0, uses_anonymous_args = 0
